Archive member included because of file (symbol)

c:/program files (x86)/gnu tools arm embedded/4.9 2014q4/bin/../lib/gcc/arm-none-eabi/4.9.3/armv7-m\libgcc.a(unwind-arm.o)
                              ..\obj\main.o (__aeabi_unwind_cpp_pr0)
c:/program files (x86)/gnu tools arm embedded/4.9 2014q4/bin/../lib/gcc/arm-none-eabi/4.9.3/armv7-m\libgcc.a(libunwind.o)
                              c:/program files (x86)/gnu tools arm embedded/4.9 2014q4/bin/../lib/gcc/arm-none-eabi/4.9.3/armv7-m\libgcc.a(unwind-arm.o) (restore_core_regs)
c:/program files (x86)/gnu tools arm embedded/4.9 2014q4/bin/../lib/gcc/arm-none-eabi/4.9.3/armv7-m\libgcc.a(pr-support.o)
                              c:/program files (x86)/gnu tools arm embedded/4.9 2014q4/bin/../lib/gcc/arm-none-eabi/4.9.3/armv7-m\libgcc.a(unwind-arm.o) (__gnu_unwind_execute)
c:/program files (x86)/gnu tools arm embedded/4.9 2014q4/bin/../lib/gcc/arm-none-eabi/4.9.3/../../../../arm-none-eabi/lib/armv7-m\libc.a(lib_a-memcpy.o)
                              c:/program files (x86)/gnu tools arm embedded/4.9 2014q4/bin/../lib/gcc/arm-none-eabi/4.9.3/armv7-m\libgcc.a(unwind-arm.o) (memcpy)

Allocating common symbols
Common symbol       size              file

__dso_handle        0x4               ..\obj\startup_stm32f10x_md.o

Discarded input sections

 .text          0x00000000        0x0 ..\obj\semihosting.o
 .data          0x00000000        0x0 ..\obj\semihosting.o
 .bss           0x00000000       0x14 ..\obj\semihosting.o
 .text.SH_SendChar
                0x00000000       0x68 ..\obj\semihosting.o
 .text.SH_SendString
                0x00000000       0x24 ..\obj\semihosting.o
 .text.SH_GetChar
                0x00000000       0x40 ..\obj\semihosting.o
 .debug_info    0x00000000      0x122 ..\obj\semihosting.o
 .debug_abbrev  0x00000000       0x9e ..\obj\semihosting.o
 .debug_aranges
                0x00000000       0x30 ..\obj\semihosting.o
 .debug_ranges  0x00000000       0x20 ..\obj\semihosting.o
 .debug_line    0x00000000       0xba ..\obj\semihosting.o
 .debug_str     0x00000000      0x194 ..\obj\semihosting.o
 .comment       0x00000000       0x71 ..\obj\semihosting.o
 .debug_frame   0x00000000       0x7c ..\obj\semihosting.o
 .ARM.attributes
                0x00000000       0x33 ..\obj\semihosting.o
 .text          0x00000000        0x0 ..\obj\stm32f10x_tim.o
 .data          0x00000000        0x0 ..\obj\stm32f10x_tim.o
 .bss           0x00000000        0x0 ..\obj\stm32f10x_tim.o
 .text.TIM_DeInit
                0x00000000      0x22c ..\obj\stm32f10x_tim.o
 .text.TIM_ICInit
                0x00000000       0xa8 ..\obj\stm32f10x_tim.o
 .text.TIM_PWMIConfig
                0x00000000       0xb8 ..\obj\stm32f10x_tim.o
 .text.TIM_BDTRConfig
                0x00000000       0x50 ..\obj\stm32f10x_tim.o
 .text.TIM_ICStructInit
                0x00000000       0x30 ..\obj\stm32f10x_tim.o
 .text.TIM_BDTRStructInit
                0x00000000       0x3c ..\obj\stm32f10x_tim.o
 .text.TIM_CtrlPWMOutputs
                0x00000000       0x4c ..\obj\stm32f10x_tim.o
 .text.TIM_GenerateEvent
                0x00000000       0x1c ..\obj\stm32f10x_tim.o
 .text.TIM_DMAConfig
                0x00000000       0x28 ..\obj\stm32f10x_tim.o
 .text.TIM_DMACmd
                0x00000000       0x48 ..\obj\stm32f10x_tim.o
 .text.TIM_InternalClockConfig
                0x00000000       0x24 ..\obj\stm32f10x_tim.o
 .text.TIM_ITRxExternalClockConfig
                0x00000000       0x2c ..\obj\stm32f10x_tim.o
 .text.TIM_TIxExternalClockConfig
                0x00000000       0x60 ..\obj\stm32f10x_tim.o
 .text.TIM_ETRClockMode1Config
                0x00000000       0x5c ..\obj\stm32f10x_tim.o
 .text.TIM_ETRClockMode2Config
                0x00000000       0x3c ..\obj\stm32f10x_tim.o
 .text.TIM_ETRConfig
                0x00000000       0x54 ..\obj\stm32f10x_tim.o
 .text.TIM_PrescalerConfig
                0x00000000       0x28 ..\obj\stm32f10x_tim.o
 .text.TIM_CounterModeConfig
                0x00000000       0x38 ..\obj\stm32f10x_tim.o
 .text.TIM_SelectInputTrigger
                0x00000000       0x38 ..\obj\stm32f10x_tim.o
 .text.TIM_ForcedOC1Config
                0x00000000       0x38 ..\obj\stm32f10x_tim.o
 .text.TIM_ForcedOC2Config
                0x00000000       0x3c ..\obj\stm32f10x_tim.o
 .text.TIM_ForcedOC3Config
                0x00000000       0x38 ..\obj\stm32f10x_tim.o
 .text.TIM_ForcedOC4Config
                0x00000000       0x3c ..\obj\stm32f10x_tim.o
 .text.TIM_SelectCOM
                0x00000000       0x40 ..\obj\stm32f10x_tim.o
 .text.TIM_SelectCCDMA
                0x00000000       0x40 ..\obj\stm32f10x_tim.o
 .text.TIM_CCPreloadControl
                0x00000000       0x40 ..\obj\stm32f10x_tim.o
 .text.TIM_OC1PreloadConfig
                0x00000000       0x38 ..\obj\stm32f10x_tim.o
 .text.TIM_OC2PreloadConfig
                0x00000000       0x3c ..\obj\stm32f10x_tim.o
 .text.TIM_OC3PreloadConfig
                0x00000000       0x38 ..\obj\stm32f10x_tim.o
 .text.TIM_OC4PreloadConfig
                0x00000000       0x3c ..\obj\stm32f10x_tim.o
 .text.TIM_OC1FastConfig
                0x00000000       0x38 ..\obj\stm32f10x_tim.o
 .text.TIM_OC2FastConfig
                0x00000000       0x3c ..\obj\stm32f10x_tim.o
 .text.TIM_OC3FastConfig
                0x00000000       0x38 ..\obj\stm32f10x_tim.o
 .text.TIM_OC4FastConfig
                0x00000000       0x3c ..\obj\stm32f10x_tim.o
 .text.TIM_ClearOC1Ref
                0x00000000       0x38 ..\obj\stm32f10x_tim.o
 .text.TIM_ClearOC2Ref
                0x00000000       0x3c ..\obj\stm32f10x_tim.o
 .text.TIM_ClearOC3Ref
                0x00000000       0x38 ..\obj\stm32f10x_tim.o
 .text.TIM_ClearOC4Ref
                0x00000000       0x3c ..\obj\stm32f10x_tim.o
 .text.TIM_OC1PolarityConfig
                0x00000000       0x38 ..\obj\stm32f10x_tim.o
 .text.TIM_OC1NPolarityConfig
                0x00000000       0x38 ..\obj\stm32f10x_tim.o
 .text.TIM_OC2PolarityConfig
                0x00000000       0x3c ..\obj\stm32f10x_tim.o
 .text.TIM_OC2NPolarityConfig
                0x00000000       0x3c ..\obj\stm32f10x_tim.o
 .text.TIM_OC3PolarityConfig
                0x00000000       0x3c ..\obj\stm32f10x_tim.o
 .text.TIM_OC3NPolarityConfig
                0x00000000       0x3c ..\obj\stm32f10x_tim.o
 .text.TIM_OC4PolarityConfig
                0x00000000       0x3c ..\obj\stm32f10x_tim.o
 .text.TIM_CCxCmd
                0x00000000       0x54 ..\obj\stm32f10x_tim.o
 .text.TIM_CCxNCmd
                0x00000000       0x54 ..\obj\stm32f10x_tim.o
 .text.TIM_SelectOCxM
                0x00000000       0xac ..\obj\stm32f10x_tim.o
 .text.TIM_UpdateDisableConfig
                0x00000000       0x40 ..\obj\stm32f10x_tim.o
 .text.TIM_UpdateRequestConfig
                0x00000000       0x40 ..\obj\stm32f10x_tim.o
 .text.TIM_SelectHallSensor
                0x00000000       0x40 ..\obj\stm32f10x_tim.o
 .text.TIM_SelectOnePulseMode
                0x00000000       0x38 ..\obj\stm32f10x_tim.o
 .text.TIM_SelectOutputTrigger
                0x00000000       0x38 ..\obj\stm32f10x_tim.o
 .text.TIM_SelectSlaveMode
                0x00000000       0x38 ..\obj\stm32f10x_tim.o
 .text.TIM_SelectMasterSlaveMode
                0x00000000       0x38 ..\obj\stm32f10x_tim.o
 .text.TIM_SetCounter
                0x00000000       0x1c ..\obj\stm32f10x_tim.o
 .text.TIM_SetAutoreload
                0x00000000       0x1c ..\obj\stm32f10x_tim.o
 .text.TIM_SetCompare1
                0x00000000       0x1c ..\obj\stm32f10x_tim.o
 .text.TIM_SetCompare2
                0x00000000       0x1c ..\obj\stm32f10x_tim.o
 .text.TIM_SetCompare3
                0x00000000       0x1c ..\obj\stm32f10x_tim.o
 .text.TIM_SetCompare4
                0x00000000       0x20 ..\obj\stm32f10x_tim.o
 .text.TIM_SetIC1Prescaler
                0x00000000       0x38 ..\obj\stm32f10x_tim.o
 .text.TIM_SetIC2Prescaler
                0x00000000       0x3c ..\obj\stm32f10x_tim.o
 .text.TIM_SetIC3Prescaler
                0x00000000       0x38 ..\obj\stm32f10x_tim.o
 .text.TIM_SetIC4Prescaler
                0x00000000       0x3c ..\obj\stm32f10x_tim.o
 .text.TIM_SetClockDivision
                0x00000000       0x38 ..\obj\stm32f10x_tim.o
 .text.TIM_GetCapture1
                0x00000000       0x1c ..\obj\stm32f10x_tim.o
 .text.TIM_GetCapture2
                0x00000000       0x1c ..\obj\stm32f10x_tim.o
 .text.TIM_GetCapture3
                0x00000000       0x1c ..\obj\stm32f10x_tim.o
 .text.TIM_GetCapture4
                0x00000000       0x1c ..\obj\stm32f10x_tim.o
 .text.TIM_GetCounter
                0x00000000       0x1c ..\obj\stm32f10x_tim.o
 .text.TIM_GetPrescaler
                0x00000000       0x1c ..\obj\stm32f10x_tim.o
 .text.TIM_GetFlagStatus
                0x00000000       0x38 ..\obj\stm32f10x_tim.o
 .text.TIM_ClearFlag
                0x00000000       0x20 ..\obj\stm32f10x_tim.o
 .text.TIM_GetITStatus
                0x00000000       0x54 ..\obj\stm32f10x_tim.o
 .text.TI1_Config
                0x00000000       0xe0 ..\obj\stm32f10x_tim.o
 .text.TI2_Config
                0x00000000       0xf4 ..\obj\stm32f10x_tim.o
 .text.TI3_Config
                0x00000000       0xec ..\obj\stm32f10x_tim.o
 .text.TI4_Config
                0x00000000       0xf8 ..\obj\stm32f10x_tim.o
 .text          0x00000000        0x0 ..\obj\system_stm32f10x.o
 .bss           0x00000000        0x0 ..\obj\system_stm32f10x.o
 .text.SystemCoreClockUpdate
                0x00000000       0xdc ..\obj\system_stm32f10x.o
 .text          0x00000000        0x0 ..\obj\CAN.o
 .data          0x00000000        0x0 ..\obj\CAN.o
 .bss           0x00000000        0x0 ..\obj\CAN.o
 .text          0x00000000        0x0 ..\obj\SYSTEM.o
 .data          0x00000000        0x0 ..\obj\SYSTEM.o
 .ARM.extab.text.NVIC_SetPriority
                0x00000000        0x0 ..\obj\SYSTEM.o
 .ARM.extab.text.SysTick_Config
                0x00000000        0x0 ..\obj\SYSTEM.o
 .ARM.extab.text._Z5setupv
                0x00000000        0x0 ..\obj\SYSTEM.o
 .ARM.extab.text.SysTick_Handler
                0x00000000        0x0 ..\obj\SYSTEM.o
 .ARM.extab.text._Z5delaym
                0x00000000        0x0 ..\obj\SYSTEM.o
 .text          0x00000000        0x0 ..\obj\startup_stm32f10x_md.o
 .data          0x00000000        0x0 ..\obj\startup_stm32f10x_md.o
 .bss           0x00000000        0x0 ..\obj\startup_stm32f10x_md.o
 COMMON         0x00000000        0x4 ..\obj\startup_stm32f10x_md.o
 .text          0x00000000        0x0 ..\obj\stm32f10x_can.o
 .data          0x00000000        0x0 ..\obj\stm32f10x_can.o
 .bss           0x00000000        0x0 ..\obj\stm32f10x_can.o
 .text.CAN_SlaveStartBank
                0x00000000       0x60 ..\obj\stm32f10x_can.o
 .text.CAN_DBGFreeze
                0x00000000       0x38 ..\obj\stm32f10x_can.o
 .text.CAN_TTComModeCmd
                0x00000000       0x98 ..\obj\stm32f10x_can.o
 .text.CAN_CancelTransmit
                0x00000000       0x50 ..\obj\stm32f10x_can.o
 .text.CAN_FIFORelease
                0x00000000       0x38 ..\obj\stm32f10x_can.o
 .text.CAN_OperatingModeRequest
                0x00000000       0xfc ..\obj\stm32f10x_can.o
 .text.CAN_Sleep
                0x00000000       0x3c ..\obj\stm32f10x_can.o
 .text.CAN_WakeUp
                0x00000000       0x58 ..\obj\stm32f10x_can.o
 .text.CAN_GetLastErrorCode
                0x00000000       0x28 ..\obj\stm32f10x_can.o
 .text.CAN_GetReceiveErrorCounter
                0x00000000       0x24 ..\obj\stm32f10x_can.o
 .text.CAN_GetLSBTransmitErrorCounter
                0x00000000       0x28 ..\obj\stm32f10x_can.o
 .text.CAN_ITConfig
                0x00000000       0x3c ..\obj\stm32f10x_can.o
 .text.CAN_GetFlagStatus
                0x00000000       0xd0 ..\obj\stm32f10x_can.o
 .text.CAN_ClearFlag
                0x00000000       0x70 ..\obj\stm32f10x_can.o
 .text.CAN_ClearITPendingBit
                0x00000000       0xdc ..\obj\stm32f10x_can.o
 .text          0x00000000        0x0 ..\obj\stm32f10x_gpio.o
 .data          0x00000000        0x0 ..\obj\stm32f10x_gpio.o
 .bss           0x00000000        0x0 ..\obj\stm32f10x_gpio.o
 .text.GPIO_DeInit
                0x00000000       0xe4 ..\obj\stm32f10x_gpio.o
 .text.GPIO_AFIODeInit
                0x00000000       0x18 ..\obj\stm32f10x_gpio.o
 .text.GPIO_ReadInputDataBit
                0x00000000       0x34 ..\obj\stm32f10x_gpio.o
 .text.GPIO_ReadInputData
                0x00000000       0x1c ..\obj\stm32f10x_gpio.o
 .text.GPIO_ReadOutputDataBit
                0x00000000       0x34 ..\obj\stm32f10x_gpio.o
 .text.GPIO_ReadOutputData
                0x00000000       0x1c ..\obj\stm32f10x_gpio.o
 .text.GPIO_SetBits
                0x00000000       0x1c ..\obj\stm32f10x_gpio.o
 .text.GPIO_ResetBits
                0x00000000       0x1c ..\obj\stm32f10x_gpio.o
 .text.GPIO_Write
                0x00000000       0x1c ..\obj\stm32f10x_gpio.o
 .text.GPIO_PinLockConfig
                0x00000000       0x44 ..\obj\stm32f10x_gpio.o
 .text.GPIO_EventOutputConfig
                0x00000000       0x4c ..\obj\stm32f10x_gpio.o
 .text.GPIO_EventOutputCmd
                0x00000000       0x20 ..\obj\stm32f10x_gpio.o
 .text.GPIO_EXTILineConfig
                0x00000000       0x84 ..\obj\stm32f10x_gpio.o
 .text.GPIO_ETH_MediaInterfaceConfig
                0x00000000       0x1c ..\obj\stm32f10x_gpio.o
 .text          0x00000000        0x0 ..\obj\main.o
 .data          0x00000000        0x0 ..\obj\main.o
 .ARM.extab.text.main
                0x00000000        0x0 ..\obj\main.o
 .ARM.extab.text.USB_LP_CAN1_RX0_IRQHandler
                0x00000000        0x0 ..\obj\main.o
 .ARM.extab.text.CAN1_RX1_IRQHandler
                0x00000000        0x0 ..\obj\main.o
 .ARM.extab.text.EXTI0_IRQHandler
                0x00000000        0x0 ..\obj\main.o
 .text          0x00000000        0x0 ..\obj\GPIO.o
 .data          0x00000000        0x0 ..\obj\GPIO.o
 .bss           0x00000000        0x0 ..\obj\GPIO.o
 .text._ZN4GPIO4readEv
                0x00000000       0x24 ..\obj\GPIO.o
 .ARM.extab.text._ZN4GPIO4readEv
                0x00000000        0xc ..\obj\GPIO.o
 .ARM.exidx.text._ZN4GPIO4readEv
                0x00000000        0x8 ..\obj\GPIO.o
 .ARM.extab.text._Z9GPIOSetupv
                0x00000000        0x0 ..\obj\GPIO.o
 .text._Z8pinSetupP12GPIO_TypeDeft16GPIOMode_TypeDef
                0x00000000       0x38 ..\obj\GPIO.o
 .ARM.extab.text._Z8pinSetupP12GPIO_TypeDeft16GPIOMode_TypeDef
                0x00000000        0xc ..\obj\GPIO.o
 .ARM.exidx.text._Z8pinSetupP12GPIO_TypeDeft16GPIOMode_TypeDef
                0x00000000        0x8 ..\obj\GPIO.o
 .text._Z8pinWriteP12GPIO_TypeDeft9BitAction
                0x00000000       0x24 ..\obj\GPIO.o
 .ARM.extab.text._Z8pinWriteP12GPIO_TypeDeft9BitAction
                0x00000000        0xc ..\obj\GPIO.o
 .ARM.exidx.text._Z8pinWriteP12GPIO_TypeDeft9BitAction
                0x00000000        0x8 ..\obj\GPIO.o
 .text          0x00000000        0x0 ..\obj\ADC.o
 .data          0x00000000        0x0 ..\obj\ADC.o
 .bss           0x00000000        0x0 ..\obj\ADC.o
 .text          0x00000000        0x0 ..\obj\printf.o
 .data          0x00000000      0x430 ..\obj\printf.o
 .bss           0x00000000        0x0 ..\obj\printf.o
 .text.PrintChar
                0x00000000       0x38 ..\obj\printf.o
 .text.snprintf
                0x00000000       0x30 ..\obj\printf.o
 .rodata        0x00000000       0x24 ..\obj\printf.o
 .text.vfprintf
                0x00000000       0x68 ..\obj\printf.o
 .text.vprintf  0x00000000       0x28 ..\obj\printf.o
 .text.fprintf  0x00000000       0x2c ..\obj\printf.o
 .text.printf   0x00000000       0x28 ..\obj\printf.o
 .text.sprintf  0x00000000       0x2c ..\obj\printf.o
 .text.puts     0x00000000       0x24 ..\obj\printf.o
 .text.fputc    0x00000000       0x40 ..\obj\printf.o
 .text.fputs    0x00000000       0x48 ..\obj\printf.o
 .text          0x00000000        0x0 ..\obj\stm32f10x_rcc.o
 .bss           0x00000000        0x0 ..\obj\stm32f10x_rcc.o
 .text.RCC_DeInit
                0x00000000       0x5c ..\obj\stm32f10x_rcc.o
 .text.RCC_HSEConfig
                0x00000000       0x5c ..\obj\stm32f10x_rcc.o
 .text.RCC_WaitForHSEStartUp
                0x00000000       0x50 ..\obj\stm32f10x_rcc.o
 .text.RCC_AdjustHSICalibrationValue
                0x00000000       0x3c ..\obj\stm32f10x_rcc.o
 .text.RCC_HSICmd
                0x00000000       0x20 ..\obj\stm32f10x_rcc.o
 .text.RCC_PLLConfig
                0x00000000       0x3c ..\obj\stm32f10x_rcc.o
 .text.RCC_PLLCmd
                0x00000000       0x20 ..\obj\stm32f10x_rcc.o
 .text.RCC_SYSCLKConfig
                0x00000000       0x38 ..\obj\stm32f10x_rcc.o
 .text.RCC_GetSYSCLKSource
                0x00000000       0x20 ..\obj\stm32f10x_rcc.o
 .text.RCC_HCLKConfig
                0x00000000       0x38 ..\obj\stm32f10x_rcc.o
 .text.RCC_PCLK1Config
                0x00000000       0x38 ..\obj\stm32f10x_rcc.o
 .text.RCC_PCLK2Config
                0x00000000       0x38 ..\obj\stm32f10x_rcc.o
 .text.RCC_ITConfig
                0x00000000       0x4c ..\obj\stm32f10x_rcc.o
 .text.RCC_USBCLKConfig
                0x00000000       0x1c ..\obj\stm32f10x_rcc.o
 .text.RCC_LSEConfig
                0x00000000       0x40 ..\obj\stm32f10x_rcc.o
 .text.RCC_LSICmd
                0x00000000       0x20 ..\obj\stm32f10x_rcc.o
 .text.RCC_RTCCLKConfig
                0x00000000       0x24 ..\obj\stm32f10x_rcc.o
 .text.RCC_RTCCLKCmd
                0x00000000       0x20 ..\obj\stm32f10x_rcc.o
 .text.RCC_AHBPeriphClockCmd
                0x00000000       0x3c ..\obj\stm32f10x_rcc.o
 .text.RCC_APB2PeriphResetCmd
                0x00000000       0x3c ..\obj\stm32f10x_rcc.o
 .text.RCC_BackupResetCmd
                0x00000000       0x20 ..\obj\stm32f10x_rcc.o
 .text.RCC_ClockSecuritySystemCmd
                0x00000000       0x20 ..\obj\stm32f10x_rcc.o
 .text.RCC_MCOConfig
                0x00000000       0x20 ..\obj\stm32f10x_rcc.o
 .text.RCC_GetFlagStatus
                0x00000000       0x74 ..\obj\stm32f10x_rcc.o
 .text.RCC_ClearFlag
                0x00000000       0x1c ..\obj\stm32f10x_rcc.o
 .text.RCC_GetITStatus
                0x00000000       0x38 ..\obj\stm32f10x_rcc.o
 .text.RCC_ClearITPendingBit
                0x00000000       0x20 ..\obj\stm32f10x_rcc.o
 .text          0x00000000        0x0 ..\obj\stm32f10x_exti.o
 .data          0x00000000        0x0 ..\obj\stm32f10x_exti.o
 .bss           0x00000000        0x0 ..\obj\stm32f10x_exti.o
 .text.EXTI_DeInit
                0x00000000       0x34 ..\obj\stm32f10x_exti.o
 .text.EXTI_Init
                0x00000000       0xe4 ..\obj\stm32f10x_exti.o
 .text.EXTI_StructInit
                0x00000000       0x2c ..\obj\stm32f10x_exti.o
 .text.EXTI_GenerateSWInterrupt
                0x00000000       0x24 ..\obj\stm32f10x_exti.o
 .text.EXTI_GetFlagStatus
                0x00000000       0x34 ..\obj\stm32f10x_exti.o
 .text.EXTI_ClearFlag
                0x00000000       0x1c ..\obj\stm32f10x_exti.o
 .text.EXTI_GetITStatus
                0x00000000       0x48 ..\obj\stm32f10x_exti.o
 .text          0x00000000        0x0 ..\obj\stm32f10x_adc.o
 .data          0x00000000        0x0 ..\obj\stm32f10x_adc.o
 .bss           0x00000000        0x0 ..\obj\stm32f10x_adc.o
 .text.ADC_DeInit
                0x00000000       0x74 ..\obj\stm32f10x_adc.o
 .text.ADC_DMACmd
                0x00000000       0x38 ..\obj\stm32f10x_adc.o
 .text.ADC_ITConfig
                0x00000000       0x44 ..\obj\stm32f10x_adc.o
 .text.ADC_GetSoftwareStartConvStatus
                0x00000000       0x30 ..\obj\stm32f10x_adc.o
 .text.ADC_DiscModeChannelCountConfig
                0x00000000       0x44 ..\obj\stm32f10x_adc.o
 .text.ADC_DiscModeCmd
                0x00000000       0x38 ..\obj\stm32f10x_adc.o
 .text.ADC_ExternalTrigConvCmd
                0x00000000       0x38 ..\obj\stm32f10x_adc.o
 .text.ADC_GetDualModeConversionValue
                0x00000000       0x18 ..\obj\stm32f10x_adc.o
 .text.ADC_AutoInjectedConvCmd
                0x00000000       0x38 ..\obj\stm32f10x_adc.o
 .text.ADC_InjectedDiscModeCmd
                0x00000000       0x38 ..\obj\stm32f10x_adc.o
 .text.ADC_ExternalTrigInjectedConvConfig
                0x00000000       0x34 ..\obj\stm32f10x_adc.o
 .text.ADC_ExternalTrigInjectedConvCmd
                0x00000000       0x38 ..\obj\stm32f10x_adc.o
 .text.ADC_SoftwareStartInjectedConvCmd
                0x00000000       0x38 ..\obj\stm32f10x_adc.o
 .text.ADC_GetSoftwareStartInjectedConvCmdStatus
                0x00000000       0x30 ..\obj\stm32f10x_adc.o
 .text.ADC_InjectedChannelConfig
                0x00000000      0x120 ..\obj\stm32f10x_adc.o
 .text.ADC_InjectedSequencerLengthConfig
                0x00000000       0x44 ..\obj\stm32f10x_adc.o
 .text.ADC_SetInjectedOffset
                0x00000000       0x34 ..\obj\stm32f10x_adc.o
 .text.ADC_GetInjectedConversionValue
                0x00000000       0x30 ..\obj\stm32f10x_adc.o
 .text.ADC_AnalogWatchdogCmd
                0x00000000       0x38 ..\obj\stm32f10x_adc.o
 .text.ADC_AnalogWatchdogThresholdsConfig
                0x00000000       0x28 ..\obj\stm32f10x_adc.o
 .text.ADC_AnalogWatchdogSingleChannelConfig
                0x00000000       0x38 ..\obj\stm32f10x_adc.o
 .text.ADC_TempSensorVrefintCmd
                0x00000000       0x38 ..\obj\stm32f10x_adc.o
 .text.ADC_ClearFlag
                0x00000000       0x20 ..\obj\stm32f10x_adc.o
 .text.ADC_GetITStatus
                0x00000000       0x58 ..\obj\stm32f10x_adc.o
 .text.ADC_ClearITPendingBit
                0x00000000       0x2c ..\obj\stm32f10x_adc.o
 .text          0x00000000        0x0 ..\obj\stm32f10x_usart.o
 .data          0x00000000        0x0 ..\obj\stm32f10x_usart.o
 .bss           0x00000000        0x0 ..\obj\stm32f10x_usart.o
 .text.USART_DeInit
                0x00000000       0xb8 ..\obj\stm32f10x_usart.o
 .text.USART_ClockInit
                0x00000000       0x58 ..\obj\stm32f10x_usart.o
 .text.USART_ClockStructInit
                0x00000000       0x2c ..\obj\stm32f10x_usart.o
 .text.USART_DMACmd
                0x00000000       0x48 ..\obj\stm32f10x_usart.o
 .text.USART_SetAddress
                0x00000000       0x38 ..\obj\stm32f10x_usart.o
 .text.USART_WakeUpConfig
                0x00000000       0x38 ..\obj\stm32f10x_usart.o
 .text.USART_ReceiverWakeUpCmd
                0x00000000       0x40 ..\obj\stm32f10x_usart.o
 .text.USART_LINBreakDetectLengthConfig
                0x00000000       0x38 ..\obj\stm32f10x_usart.o
 .text.USART_LINCmd
                0x00000000       0x40 ..\obj\stm32f10x_usart.o
 .text.USART_SendBreak
                0x00000000       0x24 ..\obj\stm32f10x_usart.o
 .text.USART_SetGuardTime
                0x00000000       0x3c ..\obj\stm32f10x_usart.o
 .text.USART_SetPrescaler
                0x00000000       0x38 ..\obj\stm32f10x_usart.o
 .text.USART_SmartCardCmd
                0x00000000       0x40 ..\obj\stm32f10x_usart.o
 .text.USART_SmartCardNACKCmd
                0x00000000       0x40 ..\obj\stm32f10x_usart.o
 .text.USART_HalfDuplexCmd
                0x00000000       0x40 ..\obj\stm32f10x_usart.o
 .text.USART_OverSampling8Cmd
                0x00000000       0x44 ..\obj\stm32f10x_usart.o
 .text.USART_OneBitMethodCmd
                0x00000000       0x40 ..\obj\stm32f10x_usart.o
 .text.USART_IrDAConfig
                0x00000000       0x38 ..\obj\stm32f10x_usart.o
 .text.USART_IrDACmd
                0x00000000       0x40 ..\obj\stm32f10x_usart.o
 .text.USART_GetFlagStatus
                0x00000000       0x38 ..\obj\stm32f10x_usart.o
 .text.USART_ClearFlag
                0x00000000       0x20 ..\obj\stm32f10x_usart.o
 .text.USART_ClearITPendingBit
                0x00000000       0x38 ..\obj\stm32f10x_usart.o
 .data          0x00000000        0x0 ..\obj\sh_cmd.o
 .bss           0x00000000        0x0 ..\obj\sh_cmd.o
 .text          0x00000000        0x0 ..\obj\syscalls.o
 .data          0x00000000        0x0 ..\obj\syscalls.o
 .bss           0x00000000        0x4 ..\obj\syscalls.o
 .text._sbrk    0x00000000       0x40 ..\obj\syscalls.o
 .text.link     0x00000000       0x1c ..\obj\syscalls.o
 .text._close   0x00000000       0x18 ..\obj\syscalls.o
 .text._fstat   0x00000000       0x20 ..\obj\syscalls.o
 .text._isatty  0x00000000       0x18 ..\obj\syscalls.o
 .text._lseek   0x00000000       0x1c ..\obj\syscalls.o
 .text._read    0x00000000       0x1c ..\obj\syscalls.o
 .text._write   0x00000000       0x1c ..\obj\syscalls.o
 .debug_info    0x00000000      0x3ee ..\obj\syscalls.o
 .debug_abbrev  0x00000000       0xe2 ..\obj\syscalls.o
 .debug_aranges
                0x00000000       0x60 ..\obj\syscalls.o
 .debug_ranges  0x00000000       0x50 ..\obj\syscalls.o
 .debug_line    0x00000000      0x182 ..\obj\syscalls.o
 .debug_str     0x00000000      0x2e6 ..\obj\syscalls.o
 .comment       0x00000000       0x71 ..\obj\syscalls.o
 .debug_frame   0x00000000      0x168 ..\obj\syscalls.o
 .ARM.attributes
                0x00000000       0x33 ..\obj\syscalls.o
 .text          0x00000000        0x0 ..\obj\SPI.o
 .data          0x00000000        0x0 ..\obj\SPI.o
 .bss           0x00000000        0x0 ..\obj\SPI.o
 .text._Z9SPI1Setupttt
                0x00000000      0x118 ..\obj\SPI.o
 .ARM.extab.text._Z9SPI1Setupttt
                0x00000000        0xc ..\obj\SPI.o
 .ARM.exidx.text._Z9SPI1Setupttt
                0x00000000        0x8 ..\obj\SPI.o
 .ARM.extab.text.SPI1_IRQHandler
                0x00000000        0x0 ..\obj\SPI.o
 .text          0x00000000        0x0 ..\obj\REMAP.o
 .data          0x00000000        0x0 ..\obj\REMAP.o
 .bss           0x00000000        0x0 ..\obj\REMAP.o
 .debug_info    0x00000000       0x99 ..\obj\REMAP.o
 .debug_abbrev  0x00000000       0x4b ..\obj\REMAP.o
 .debug_aranges
                0x00000000       0x18 ..\obj\REMAP.o
 .debug_line    0x00000000      0x129 ..\obj\REMAP.o
 .debug_str     0x00000000      0x1b4 ..\obj\REMAP.o
 .comment       0x00000000       0x71 ..\obj\REMAP.o
 .ARM.attributes
                0x00000000       0x33 ..\obj\REMAP.o
 .text          0x00000000        0x0 ..\obj\misc.o
 .data          0x00000000        0x0 ..\obj\misc.o
 .bss           0x00000000        0x0 ..\obj\misc.o
 .text.NVIC_PriorityGroupConfig
                0x00000000       0x24 ..\obj\misc.o
 .text.NVIC_SetVectorTable
                0x00000000       0x2c ..\obj\misc.o
 .text.NVIC_SystemLPConfig
                0x00000000       0x40 ..\obj\misc.o
 .text.SysTick_CLKSourceConfig
                0x00000000       0x38 ..\obj\misc.o
 .text          0x00000000        0x0 ..\obj\stm32f10x_spi.o
 .data          0x00000000        0x0 ..\obj\stm32f10x_spi.o
 .bss           0x00000000        0x0 ..\obj\stm32f10x_spi.o
 .text.SPI_I2S_DeInit
                0x00000000       0x74 ..\obj\stm32f10x_spi.o
 .text.SPI_Init
                0x00000000       0x88 ..\obj\stm32f10x_spi.o
 .text.I2S_Init
                0x00000000      0x164 ..\obj\stm32f10x_spi.o
 .text.SPI_StructInit
                0x00000000       0x48 ..\obj\stm32f10x_spi.o
 .text.I2S_StructInit
                0x00000000       0x38 ..\obj\stm32f10x_spi.o
 .text.SPI_Cmd  0x00000000       0x40 ..\obj\stm32f10x_spi.o
 .text.I2S_Cmd  0x00000000       0x40 ..\obj\stm32f10x_spi.o
 .text.SPI_I2S_ITConfig
                0x00000000       0x60 ..\obj\stm32f10x_spi.o
 .text.SPI_I2S_DMACmd
                0x00000000       0x48 ..\obj\stm32f10x_spi.o
 .text.SPI_I2S_SendData
                0x00000000       0x1c ..\obj\stm32f10x_spi.o
 .text.SPI_I2S_ReceiveData
                0x00000000       0x1c ..\obj\stm32f10x_spi.o
 .text.SPI_NSSInternalSoftwareConfig
                0x00000000       0x44 ..\obj\stm32f10x_spi.o
 .text.SPI_SSOutputCmd
                0x00000000       0x40 ..\obj\stm32f10x_spi.o
 .text.SPI_DataSizeConfig
                0x00000000       0x38 ..\obj\stm32f10x_spi.o
 .text.SPI_TransmitCRC
                0x00000000       0x24 ..\obj\stm32f10x_spi.o
 .text.SPI_CalculateCRC
                0x00000000       0x40 ..\obj\stm32f10x_spi.o
 .text.SPI_GetCRC
                0x00000000       0x34 ..\obj\stm32f10x_spi.o
 .text.SPI_GetCRCPolynomial
                0x00000000       0x1c ..\obj\stm32f10x_spi.o
 .text.SPI_BiDirectionalLineConfig
                0x00000000       0x40 ..\obj\stm32f10x_spi.o
 .text.SPI_I2S_GetFlagStatus
                0x00000000       0x38 ..\obj\stm32f10x_spi.o
 .text.SPI_I2S_ClearFlag
                0x00000000       0x20 ..\obj\stm32f10x_spi.o
 .text          0x00000000        0x0 ..\obj\USART.o
 .text._ZN5USART4readEv
                0x00000000       0xc4 ..\obj\USART.o
 .ARM.extab.text._ZN5USART4readEv
                0x00000000        0x0 ..\obj\USART.o
 .ARM.exidx.text._ZN5USART4readEv
                0x00000000        0x8 ..\obj\USART.o
 .text._ZN5USART4peekEv
                0x00000000       0x5c ..\obj\USART.o
 .ARM.extab.text._ZN5USART4peekEv
                0x00000000        0x0 ..\obj\USART.o
 .ARM.exidx.text._ZN5USART4peekEv
                0x00000000        0x8 ..\obj\USART.o
 .text._ZN5USART9availableEv
                0x00000000       0xa4 ..\obj\USART.o
 .ARM.extab.text._ZN5USART9availableEv
                0x00000000        0x0 ..\obj\USART.o
 .ARM.exidx.text._ZN5USART9availableEv
                0x00000000        0x8 ..\obj\USART.o
 .text          0x00000000        0x0 ..\obj\TIM.o
 .data          0x00000000        0x0 ..\obj\TIM.o
 .ARM.extab.text._ZN3TIM4dutyEt
                0x00000000        0x0 ..\obj\TIM.o
 .ARM.extab.text._ZN3TIM4readEv
                0x00000000        0x0 ..\obj\TIM.o
 .ARM.extab.text._Z10OC1DutySetP11TIM_TypeDeft
                0x00000000        0x0 ..\obj\TIM.o
 .ARM.extab.text._Z10OC2DutySetP11TIM_TypeDeft
                0x00000000        0x0 ..\obj\TIM.o
 .ARM.extab.text._Z10OC3DutySetP11TIM_TypeDeft
                0x00000000        0x0 ..\obj\TIM.o
 .ARM.extab.text._Z10OC4DutySetP11TIM_TypeDeft
                0x00000000        0x0 ..\obj\TIM.o
 .ARM.extab.text._Z17TIM1_ENCODERSetupv
                0x00000000        0x0 ..\obj\TIM.o
 .ARM.extab.text._Z17TIM3_ENCODERSetupv
                0x00000000        0x0 ..\obj\TIM.o
 .ARM.extab.text._Z17TIM4_ENCODERSetupv
                0x00000000        0x0 ..\obj\TIM.o
 .ARM.extab.text._Z16TIM1_ENCODERReadv
                0x00000000        0x0 ..\obj\TIM.o
 .ARM.extab.text._Z16TIM2_ENCODERReadv
                0x00000000        0x0 ..\obj\TIM.o
 .ARM.extab.text._Z16TIM3_ENCODERReadv
                0x00000000        0x0 ..\obj\TIM.o
 .ARM.extab.text._Z16TIM4_ENCODERReadv
                0x00000000        0x0 ..\obj\TIM.o
 .text._Z16TIM1_ENCODER_IRQv
                0x00000000       0x40 ..\obj\TIM.o
 .ARM.extab.text._Z16TIM1_ENCODER_IRQv
                0x00000000        0x0 ..\obj\TIM.o
 .ARM.exidx.text._Z16TIM1_ENCODER_IRQv
                0x00000000        0x8 ..\obj\TIM.o
 .ARM.extab.text._Z16TIM2_ENCODER_IRQv
                0x00000000        0x0 ..\obj\TIM.o
 .ARM.extab.text._Z16TIM3_ENCODER_IRQv
                0x00000000        0x0 ..\obj\TIM.o
 .ARM.extab.text._Z16TIM4_ENCODER_IRQv
                0x00000000        0x0 ..\obj\TIM.o
 .text._Z19TIM1_PWM_Update_IRQv
                0x00000000        0xc ..\obj\TIM.o
 .ARM.extab.text._Z19TIM1_PWM_Update_IRQv
                0x00000000        0x0 ..\obj\TIM.o
 .ARM.exidx.text._Z19TIM1_PWM_Update_IRQv
                0x00000000        0x8 ..\obj\TIM.o
 .text._Z19TIM2_PWM_Update_IRQv
                0x00000000        0xc ..\obj\TIM.o
 .ARM.extab.text._Z19TIM2_PWM_Update_IRQv
                0x00000000        0x0 ..\obj\TIM.o
 .ARM.exidx.text._Z19TIM2_PWM_Update_IRQv
                0x00000000        0x8 ..\obj\TIM.o
 .text._Z19TIM3_PWM_Update_IRQv
                0x00000000        0xc ..\obj\TIM.o
 .ARM.extab.text._Z19TIM3_PWM_Update_IRQv
                0x00000000        0x0 ..\obj\TIM.o
 .ARM.exidx.text._Z19TIM3_PWM_Update_IRQv
                0x00000000        0x8 ..\obj\TIM.o
 .text._Z19TIM4_PWM_Update_IRQv
                0x00000000        0xc ..\obj\TIM.o
 .ARM.extab.text._Z19TIM4_PWM_Update_IRQv
                0x00000000        0x0 ..\obj\TIM.o
 .ARM.exidx.text._Z19TIM4_PWM_Update_IRQv
                0x00000000        0x8 ..\obj\TIM.o
 .text.TIM1_IRQHandler
                0x00000000       0x18 ..\obj\TIM.o
 .ARM.extab.text.TIM1_IRQHandler
                0x00000000        0x0 ..\obj\TIM.o
 .ARM.exidx.text.TIM1_IRQHandler
                0x00000000        0x8 ..\obj\TIM.o
 .ARM.extab.text.TIM2_IRQHandler
                0x00000000        0x0 ..\obj\TIM.o
 .ARM.extab.text.TIM3_IRQHandler
                0x00000000        0x0 ..\obj\TIM.o
 .ARM.extab.text.TIM4_IRQHandler
                0x00000000        0x0 ..\obj\TIM.o
 .data          0x00000000        0x0 c:/program files (x86)/gnu tools arm embedded/4.9 2014q4/bin/../lib/gcc/arm-none-eabi/4.9.3/armv7-m\libgcc.a(unwind-arm.o)
 .bss           0x00000000        0x0 c:/program files (x86)/gnu tools arm embedded/4.9 2014q4/bin/../lib/gcc/arm-none-eabi/4.9.3/armv7-m\libgcc.a(unwind-arm.o)
 .ARM.extab     0x00000000        0x0 c:/program files (x86)/gnu tools arm embedded/4.9 2014q4/bin/../lib/gcc/arm-none-eabi/4.9.3/armv7-m\libgcc.a(unwind-arm.o)
 .debug_frame   0x00000000      0x300 c:/program files (x86)/gnu tools arm embedded/4.9 2014q4/bin/../lib/gcc/arm-none-eabi/4.9.3/armv7-m\libgcc.a(unwind-arm.o)
 .ARM.attributes
                0x00000000       0x2d c:/program files (x86)/gnu tools arm embedded/4.9 2014q4/bin/../lib/gcc/arm-none-eabi/4.9.3/armv7-m\libgcc.a(unwind-arm.o)
 .data          0x00000000        0x0 c:/program files (x86)/gnu tools arm embedded/4.9 2014q4/bin/../lib/gcc/arm-none-eabi/4.9.3/armv7-m\libgcc.a(libunwind.o)
 .bss           0x00000000        0x0 c:/program files (x86)/gnu tools arm embedded/4.9 2014q4/bin/../lib/gcc/arm-none-eabi/4.9.3/armv7-m\libgcc.a(libunwind.o)
 .ARM.attributes
                0x00000000       0x1d c:/program files (x86)/gnu tools arm embedded/4.9 2014q4/bin/../lib/gcc/arm-none-eabi/4.9.3/armv7-m\libgcc.a(libunwind.o)
 .data          0x00000000        0x0 c:/program files (x86)/gnu tools arm embedded/4.9 2014q4/bin/../lib/gcc/arm-none-eabi/4.9.3/armv7-m\libgcc.a(pr-support.o)
 .bss           0x00000000        0x0 c:/program files (x86)/gnu tools arm embedded/4.9 2014q4/bin/../lib/gcc/arm-none-eabi/4.9.3/armv7-m\libgcc.a(pr-support.o)
 .debug_frame   0x00000000      0x104 c:/program files (x86)/gnu tools arm embedded/4.9 2014q4/bin/../lib/gcc/arm-none-eabi/4.9.3/armv7-m\libgcc.a(pr-support.o)
 .ARM.attributes
                0x00000000       0x2d c:/program files (x86)/gnu tools arm embedded/4.9 2014q4/bin/../lib/gcc/arm-none-eabi/4.9.3/armv7-m\libgcc.a(pr-support.o)
 .data          0x00000000        0x0 c:/program files (x86)/gnu tools arm embedded/4.9 2014q4/bin/../lib/gcc/arm-none-eabi/4.9.3/../../../../arm-none-eabi/lib/armv7-m\libc.a(lib_a-memcpy.o)
 .bss           0x00000000        0x0 c:/program files (x86)/gnu tools arm embedded/4.9 2014q4/bin/../lib/gcc/arm-none-eabi/4.9.3/../../../../arm-none-eabi/lib/armv7-m\libc.a(lib_a-memcpy.o)
 .ARM.attributes
                0x00000000       0x1b c:/program files (x86)/gnu tools arm embedded/4.9 2014q4/bin/../lib/gcc/arm-none-eabi/4.9.3/../../../../arm-none-eabi/lib/armv7-m\libc.a(lib_a-memcpy.o)

Memory Configuration

Name             Origin             Length             Attributes
rom              0x08000000         0x00010000         xr
ram              0x20000000         0x00005000         xrw
*default*        0x00000000         0xffffffff

Linker script and memory map

                0x20005000                _eram = 0x20005000

.text           0x08000000     0x4cc8
 *(.isr_vector)
 .isr_vector    0x08000000      0x10c ..\obj\startup_stm32f10x_md.o
                0x08000000                g_pfnVectors
 *(.text*)
 .text.TIM_TimeBaseInit
                0x0800010c       0xf8 ..\obj\stm32f10x_tim.o
                0x0800010c                TIM_TimeBaseInit
 .text.TIM_OC1Init
                0x08000204      0x118 ..\obj\stm32f10x_tim.o
                0x08000204                TIM_OC1Init
 .text.TIM_OC2Init
                0x0800031c      0x110 ..\obj\stm32f10x_tim.o
                0x0800031c                TIM_OC2Init
 .text.TIM_OC3Init
                0x0800042c      0x10c ..\obj\stm32f10x_tim.o
                0x0800042c                TIM_OC3Init
 .text.TIM_OC4Init
                0x08000538       0xd0 ..\obj\stm32f10x_tim.o
                0x08000538                TIM_OC4Init
 .text.TIM_TimeBaseStructInit
                0x08000608       0x34 ..\obj\stm32f10x_tim.o
                0x08000608                TIM_TimeBaseStructInit
 .text.TIM_OCStructInit
                0x0800063c       0x44 ..\obj\stm32f10x_tim.o
                0x0800063c                TIM_OCStructInit
 .text.TIM_Cmd  0x08000680       0x40 ..\obj\stm32f10x_tim.o
                0x08000680                TIM_Cmd
 .text.TIM_ITConfig
                0x080006c0       0x48 ..\obj\stm32f10x_tim.o
                0x080006c0                TIM_ITConfig
 .text.TIM_EncoderInterfaceConfig
                0x08000708       0x98 ..\obj\stm32f10x_tim.o
                0x08000708                TIM_EncoderInterfaceConfig
 .text.TIM_ARRPreloadConfig
                0x080007a0       0x40 ..\obj\stm32f10x_tim.o
                0x080007a0                TIM_ARRPreloadConfig
 .text.TIM_ClearITPendingBit
                0x080007e0       0x20 ..\obj\stm32f10x_tim.o
                0x080007e0                TIM_ClearITPendingBit
 .text.SystemInit
                0x08000800       0x68 ..\obj\system_stm32f10x.o
                0x08000800                SystemInit
 .text.SetSysClock
                0x08000868        0xc ..\obj\system_stm32f10x.o
 .text.SetSysClockTo72
                0x08000874      0x100 ..\obj\system_stm32f10x.o
 .text._Z9CAN1Setupv
                0x08000974       0x8c ..\obj\CAN.o
                0x08000974                CAN1Setup()
 .text._Z8CAN1SendthPh
                0x08000a00       0x68 ..\obj\CAN.o
                0x08000a00                CAN1Send(unsigned short, unsigned char, unsigned char*)
 .text.NVIC_SetPriority
                0x08000a68       0x54 ..\obj\SYSTEM.o
 .text.SysTick_Config
                0x08000abc       0x44 ..\obj\SYSTEM.o
 .text._Z5setupv
                0x08000b00       0x20 ..\obj\SYSTEM.o
                0x08000b00                setup()
 .text.SysTick_Handler
                0x08000b20       0x24 ..\obj\SYSTEM.o
                0x08000b20                SysTick_Handler
 .text._Z5delaym
                0x08000b44       0x28 ..\obj\SYSTEM.o
                0x08000b44                delay(unsigned long)
 .text.Default_Reset_Handler
                0x08000b6c       0x5c ..\obj\startup_stm32f10x_md.o
                0x08000b6c                Default_Reset_Handler
                0x08000b6c                Reset_Handler
 .text.Default_Handler
                0x08000bc8        0x8 ..\obj\startup_stm32f10x_md.o
                0x08000bc8                EXTI2_IRQHandler
                0x08000bc8                DebugMon_Handler
                0x08000bc8                TIM1_CC_IRQHandler
                0x08000bc8                PVD_IRQHandler
                0x08000bc8                PendSV_Handler
                0x08000bc8                NMI_Handler
                0x08000bc8                EXTI3_IRQHandler
                0x08000bc8                I2C2_EV_IRQHandler
                0x08000bc8                UsageFault_Handler
                0x08000bc8                ADC1_2_IRQHandler
                0x08000bc8                TAMPER_IRQHandler
                0x08000bc8                DMA1_Channel4_IRQHandler
                0x08000bc8                USART3_IRQHandler
                0x08000bc8                RTC_IRQHandler
                0x08000bc8                DMA1_Channel7_IRQHandler
                0x08000bc8                I2C1_EV_IRQHandler
                0x08000bc8                DMA1_Channel6_IRQHandler
                0x08000bc8                RCC_IRQHandler
                0x08000bc8                TIM1_TRG_COM_IRQHandler
                0x08000bc8                DMA1_Channel1_IRQHandler
                0x08000bc8                EXTI15_10_IRQHandler
                0x08000bc8                EXTI9_5_IRQHandler
                0x08000bc8                SPI2_IRQHandler
                0x08000bc8                MemManage_Handler
                0x08000bc8                SVC_Handler
                0x08000bc8                DMA1_Channel5_IRQHandler
                0x08000bc8                EXTI4_IRQHandler
                0x08000bc8                USB_HP_CAN1_TX_IRQHandler
                0x08000bc8                DMA1_Channel3_IRQHandler
                0x08000bc8                TIM1_UP_IRQHandler
                0x08000bc8                WWDG_IRQHandler
                0x08000bc8                TIM1_BRK_IRQHandler
                0x08000bc8                EXTI1_IRQHandler
                0x08000bc8                RTCAlarm_IRQHandler
                0x08000bc8                I2C2_ER_IRQHandler
                0x08000bc8                DMA1_Channel2_IRQHandler
                0x08000bc8                CAN1_SCE_IRQHandler
                0x08000bc8                FLASH_IRQHandler
                0x08000bc8                BusFault_Handler
                0x08000bc8                I2C1_ER_IRQHandler
                0x08000bc8                USBWakeUp_IRQHandler
 .text.CAN_DeInit
                0x08000bd0       0x44 ..\obj\stm32f10x_can.o
                0x08000bd0                CAN_DeInit
 .text.CAN_Init
                0x08000c14      0x1a4 ..\obj\stm32f10x_can.o
                0x08000c14                CAN_Init
 .text.CAN_FilterInit
                0x08000db8      0x174 ..\obj\stm32f10x_can.o
                0x08000db8                CAN_FilterInit
 .text.CAN_StructInit
                0x08000f2c       0x54 ..\obj\stm32f10x_can.o
                0x08000f2c                CAN_StructInit
 .text.CAN_Transmit
                0x08000f80      0x190 ..\obj\stm32f10x_can.o
                0x08000f80                CAN_Transmit
 .text.CAN_TransmitStatus
                0x08001110       0xd4 ..\obj\stm32f10x_can.o
                0x08001110                CAN_TransmitStatus
 .text.CAN_Receive
                0x080011e4      0x170 ..\obj\stm32f10x_can.o
                0x080011e4                CAN_Receive
 .text.CAN_MessagePending
                0x08001354       0x4c ..\obj\stm32f10x_can.o
                0x08001354                CAN_MessagePending
 .text.CAN_GetITStatus
                0x080013a0      0x194 ..\obj\stm32f10x_can.o
                0x080013a0                CAN_GetITStatus
 .text.CheckITStatus
                0x08001534       0x30 ..\obj\stm32f10x_can.o
 .text.GPIO_Init
                0x08001564      0x180 ..\obj\stm32f10x_gpio.o
                0x08001564                GPIO_Init
 .text.GPIO_StructInit
                0x080016e4       0x28 ..\obj\stm32f10x_gpio.o
                0x080016e4                GPIO_StructInit
 .text.GPIO_WriteBit
                0x0800170c       0x30 ..\obj\stm32f10x_gpio.o
                0x0800170c                GPIO_WriteBit
 .text.GPIO_PinRemapConfig
                0x0800173c       0xe0 ..\obj\stm32f10x_gpio.o
                0x0800173c                GPIO_PinRemapConfig
 .text.main     0x0800181c      0x2fc ..\obj\main.o
                0x0800181c                main
 .text.USB_LP_CAN1_RX0_IRQHandler
                0x08001b18       0x24 ..\obj\main.o
                0x08001b18                USB_LP_CAN1_RX0_IRQHandler
 .text.CAN1_RX1_IRQHandler
                0x08001b3c       0x24 ..\obj\main.o
                0x08001b3c                CAN1_RX1_IRQHandler
 .text.EXTI0_IRQHandler
                0x08001b60       0x24 ..\obj\main.o
                0x08001b60                EXTI0_IRQHandler
 .text._ZN4GPIO5setupEP12GPIO_TypeDeft16GPIOMode_TypeDef
                0x08001b84       0x78 ..\obj\GPIO.o
                0x08001b84                GPIO::setup(GPIO_TypeDef*, unsigned short, GPIOMode_TypeDef)
 .text._ZN4GPIO5writeE9BitAction
                0x08001bfc       0x2c ..\obj\GPIO.o
                0x08001bfc                GPIO::write(BitAction)
 .text._Z9GPIOSetupv
                0x08001c28       0x28 ..\obj\GPIO.o
                0x08001c28                GPIOSetup()
 .text._ZN3ADC5setupEP11ADC_TypeDefh
                0x08001c50       0x54 ..\obj\ADC.o
                0x08001c50                ADC::setup(ADC_TypeDef*, unsigned char)
 .text._ZN3ADC4readEv
                0x08001ca4       0x50 ..\obj\ADC.o
                0x08001ca4                ADC::read()
 .text._Z9ADC1Setuph
                0x08001cf4       0x94 ..\obj\ADC.o
                0x08001cf4                ADC1Setup(unsigned char)
 .text._Z9ADC2Setuph
                0x08001d88       0x94 ..\obj\ADC.o
                0x08001d88                ADC2Setup(unsigned char)
 .text._Z8ADC1Readh
                0x08001e1c       0x50 ..\obj\ADC.o
                0x08001e1c                ADC1Read(unsigned char)
 .text._Z8ADC2Readh
                0x08001e6c       0x50 ..\obj\ADC.o
                0x08001e6c                ADC2Read(unsigned char)
 .text.PutChar  0x08001ebc       0x20 ..\obj\printf.o
                0x08001ebc                PutChar
 .text.PutString
                0x08001edc       0x3c ..\obj\printf.o
                0x08001edc                PutString
 .text.PutUnsignedInt
                0x08001f18       0xa0 ..\obj\printf.o
                0x08001f18                PutUnsignedInt
 .text.PutSignedInt
                0x08001fb8      0x104 ..\obj\printf.o
                0x08001fb8                PutSignedInt
 .text.PutHexa  0x080020bc       0xd8 ..\obj\printf.o
                0x080020bc                PutHexa
 .text.vsnprintf
                0x08002194      0x25c ..\obj\printf.o
                0x08002194                vsnprintf
 .text.vsprintf
                0x080023f0       0x24 ..\obj\printf.o
                0x080023f0                vsprintf
 .text.RCC_ADCCLKConfig
                0x08002414       0x38 ..\obj\stm32f10x_rcc.o
                0x08002414                RCC_ADCCLKConfig
 .text.RCC_GetClocksFreq
                0x0800244c      0x164 ..\obj\stm32f10x_rcc.o
                0x0800244c                RCC_GetClocksFreq
 .text.RCC_APB2PeriphClockCmd
                0x080025b0       0x3c ..\obj\stm32f10x_rcc.o
                0x080025b0                RCC_APB2PeriphClockCmd
 .text.RCC_APB1PeriphClockCmd
                0x080025ec       0x3c ..\obj\stm32f10x_rcc.o
                0x080025ec                RCC_APB1PeriphClockCmd
 .text.RCC_APB1PeriphResetCmd
                0x08002628       0x3c ..\obj\stm32f10x_rcc.o
                0x08002628                RCC_APB1PeriphResetCmd
 .text.EXTI_ClearITPendingBit
                0x08002664       0x1c ..\obj\stm32f10x_exti.o
                0x08002664                EXTI_ClearITPendingBit
 .text.ADC_Init
                0x08002680       0xa4 ..\obj\stm32f10x_adc.o
                0x08002680                ADC_Init
 .text.ADC_StructInit
                0x08002724       0x38 ..\obj\stm32f10x_adc.o
                0x08002724                ADC_StructInit
 .text.ADC_Cmd  0x0800275c       0x38 ..\obj\stm32f10x_adc.o
                0x0800275c                ADC_Cmd
 .text.ADC_ResetCalibration
                0x08002794       0x20 ..\obj\stm32f10x_adc.o
                0x08002794                ADC_ResetCalibration
 .text.ADC_GetResetCalibrationStatus
                0x080027b4       0x30 ..\obj\stm32f10x_adc.o
                0x080027b4                ADC_GetResetCalibrationStatus
 .text.ADC_StartCalibration
                0x080027e4       0x20 ..\obj\stm32f10x_adc.o
                0x080027e4                ADC_StartCalibration
 .text.ADC_GetCalibrationStatus
                0x08002804       0x30 ..\obj\stm32f10x_adc.o
                0x08002804                ADC_GetCalibrationStatus
 .text.ADC_SoftwareStartConvCmd
                0x08002834       0x38 ..\obj\stm32f10x_adc.o
                0x08002834                ADC_SoftwareStartConvCmd
 .text.ADC_RegularChannelConfig
                0x0800286c      0x194 ..\obj\stm32f10x_adc.o
                0x0800286c                ADC_RegularChannelConfig
 .text.ADC_GetConversionValue
                0x08002a00       0x1c ..\obj\stm32f10x_adc.o
                0x08002a00                ADC_GetConversionValue
 .text.ADC_GetFlagStatus
                0x08002a1c       0x34 ..\obj\stm32f10x_adc.o
                0x08002a1c                ADC_GetFlagStatus
 .text.USART_Init
                0x08002a50      0x174 ..\obj\stm32f10x_usart.o
                0x08002a50                USART_Init
 .text.USART_StructInit
                0x08002bc4       0x38 ..\obj\stm32f10x_usart.o
                0x08002bc4                USART_StructInit
 .text.USART_Cmd
                0x08002bfc       0x40 ..\obj\stm32f10x_usart.o
                0x08002bfc                USART_Cmd
 .text.USART_ITConfig
                0x08002c3c       0x90 ..\obj\stm32f10x_usart.o
                0x08002c3c                USART_ITConfig
 .text.USART_SendData
                0x08002ccc       0x24 ..\obj\stm32f10x_usart.o
                0x08002ccc                USART_SendData
 .text.USART_ReceiveData
                0x08002cf0       0x20 ..\obj\stm32f10x_usart.o
                0x08002cf0                USART_ReceiveData
 .text.USART_GetITStatus
                0x08002d10       0xb8 ..\obj\stm32f10x_usart.o
                0x08002d10                USART_GetITStatus
 .text          0x08002dc8       0x28 ..\obj\sh_cmd.o
                0x08002dc8                SH_DoCommand
                0x08002dda                HardFault_Handler
 .text.abort    0x08002df0        0x8 ..\obj\syscalls.o
                0x08002df0                abort
 .text.SPI1_IRQHandler
                0x08002df8       0x4c ..\obj\SPI.o
                0x08002df8                SPI1_IRQHandler
 .text.NVIC_Init
                0x08002e44       0xc4 ..\obj\misc.o
                0x08002e44                NVIC_Init
 .text.SPI_I2S_GetITStatus
                0x08002f08       0x78 ..\obj\stm32f10x_spi.o
                0x08002f08                SPI_I2S_GetITStatus
 .text.SPI_I2S_ClearITPendingBit
                0x08002f80       0x34 ..\obj\stm32f10x_spi.o
                0x08002f80                SPI_I2S_ClearITPendingBit
 .text._ZN5USART4putsEPKc
                0x08002fb4       0x38 ..\obj\USART.o
                0x08002fb4                USART::puts(char const*)
 .text._ZN5USART6printfEPKcz
                0x08002fec       0x40 ..\obj\USART.o
                0x08002fec                USART::printf(char const*, ...)
 .text._ZN5USART5setupEP13USART_TypeDefm
                0x0800302c       0x68 ..\obj\USART.o
                0x0800302c                USART::setup(USART_TypeDef*, unsigned long)
 .text._ZN5USART4sendEc
                0x08003094       0x80 ..\obj\USART.o
                0x08003094                USART::send(char)
 .text._Z11USART2Setupm
                0x08003114       0x50 ..\obj\USART.o
                0x08003114                USART2Setup(unsigned long)
 .text._Z11USART1Setupm
                0x08003164       0x50 ..\obj\USART.o
                0x08003164                USART1Setup(unsigned long)
 .text._Z13USART2ITSetupt
                0x080031b4       0x38 ..\obj\USART.o
                0x080031b4                USART2ITSetup(unsigned short)
 .text._Z13USART1ITSetupt
                0x080031ec       0x38 ..\obj\USART.o
                0x080031ec                USART1ITSetup(unsigned short)
 .text.USART1_IRQHandler
                0x08003224       0xe8 ..\obj\USART.o
                0x08003224                USART1_IRQHandler
 .text.USART2_IRQHandler
                0x0800330c       0x88 ..\obj\USART.o
                0x0800330c                USART2_IRQHandler
 .text._ZN3TIM8pwmSetupEP11TIM_TypeDefttt
                0x08003394      0x124 ..\obj\TIM.o
                0x08003394                TIM::pwmSetup(TIM_TypeDef*, unsigned short, unsigned short, unsigned short)
 .text._ZN3TIM4dutyEt
                0x080034b8      0x110 ..\obj\TIM.o
                0x080034b8                TIM::duty(unsigned short)
 .text._ZN3TIM12encoderSetupEP11TIM_TypeDef
                0x080035c8       0x88 ..\obj\TIM.o
                0x080035c8                TIM::encoderSetup(TIM_TypeDef*)
 .text._ZN3TIM4readEv
                0x08003650       0x68 ..\obj\TIM.o
                0x08003650                TIM::read()
 .text._Z12TIM2PWMSetupt
                0x080036b8       0x3c ..\obj\TIM.o
                0x080036b8                TIM2PWMSetup(unsigned short)
 .text._Z12TIM3PWMSetupt
                0x080036f4       0x40 ..\obj\TIM.o
                0x080036f4                TIM3PWMSetup(unsigned short)
 .text._Z12TIM4PWMSetupt
                0x08003734       0x40 ..\obj\TIM.o
                0x08003734                TIM4PWMSetup(unsigned short)
 .text._Z11OC1PWMSetupP11TIM_TypeDeft
                0x08003774       0x4c ..\obj\TIM.o
                0x08003774                OC1PWMSetup(TIM_TypeDef*, unsigned short)
 .text._Z11OC2PWMSetupP11TIM_TypeDeft
                0x080037c0       0x4c ..\obj\TIM.o
                0x080037c0                OC2PWMSetup(TIM_TypeDef*, unsigned short)
 .text._Z11OC3PWMSetupP11TIM_TypeDeft
                0x0800380c       0x4c ..\obj\TIM.o
                0x0800380c                OC3PWMSetup(TIM_TypeDef*, unsigned short)
 .text._Z11OC4PWMSetupP11TIM_TypeDeft
                0x08003858       0x4c ..\obj\TIM.o
                0x08003858                OC4PWMSetup(TIM_TypeDef*, unsigned short)
 .text._Z10OC1DutySetP11TIM_TypeDeft
                0x080038a4       0x1c ..\obj\TIM.o
                0x080038a4                OC1DutySet(TIM_TypeDef*, unsigned short)
 .text._Z10OC2DutySetP11TIM_TypeDeft
                0x080038c0       0x1c ..\obj\TIM.o
                0x080038c0                OC2DutySet(TIM_TypeDef*, unsigned short)
 .text._Z10OC3DutySetP11TIM_TypeDeft
                0x080038dc       0x1c ..\obj\TIM.o
                0x080038dc                OC3DutySet(TIM_TypeDef*, unsigned short)
 .text._Z10OC4DutySetP11TIM_TypeDeft
                0x080038f8       0x20 ..\obj\TIM.o
                0x080038f8                OC4DutySet(TIM_TypeDef*, unsigned short)
 .text._Z17TIM1_ENCODERSetupv
                0x08003918       0x34 ..\obj\TIM.o
                0x08003918                TIM1_ENCODERSetup()
 .text._Z17TIM2_ENCODERSetupv
                0x0800394c       0x50 ..\obj\TIM.o
                0x0800394c                TIM2_ENCODERSetup()
 .text._Z17TIM3_ENCODERSetupv
                0x0800399c       0x30 ..\obj\TIM.o
                0x0800399c                TIM3_ENCODERSetup()
 .text._Z17TIM4_ENCODERSetupv
                0x080039cc       0x30 ..\obj\TIM.o
                0x080039cc                TIM4_ENCODERSetup()
 .text._Z16TIM1_ENCODERReadv
                0x080039fc       0x28 ..\obj\TIM.o
                0x080039fc                TIM1_ENCODERRead()
 .text._Z16TIM2_ENCODERReadv
                0x08003a24       0x24 ..\obj\TIM.o
                0x08003a24                TIM2_ENCODERRead()
 .text._Z16TIM3_ENCODERReadv
                0x08003a48       0x28 ..\obj\TIM.o
                0x08003a48                TIM3_ENCODERRead()
 .text._Z16TIM4_ENCODERReadv
                0x08003a70       0x28 ..\obj\TIM.o
                0x08003a70                TIM4_ENCODERRead()
 .text._Z16TIM2_ENCODER_IRQv
                0x08003a98       0x40 ..\obj\TIM.o
                0x08003a98                TIM2_ENCODER_IRQ()
 .text._Z16TIM3_ENCODER_IRQv
                0x08003ad8       0x40 ..\obj\TIM.o
                0x08003ad8                TIM3_ENCODER_IRQ()
 .text._Z16TIM4_ENCODER_IRQv
                0x08003b18       0x40 ..\obj\TIM.o
                0x08003b18                TIM4_ENCODER_IRQ()
 .text.TIM2_IRQHandler
                0x08003b58       0x18 ..\obj\TIM.o
                0x08003b58                TIM2_IRQHandler
 .text.TIM3_IRQHandler
                0x08003b70       0x18 ..\obj\TIM.o
                0x08003b70                TIM3_IRQHandler
 .text.TIM4_IRQHandler
                0x08003b88       0x18 ..\obj\TIM.o
                0x08003b88                TIM4_IRQHandler
 .text          0x08003ba0      0xa54 c:/program files (x86)/gnu tools arm embedded/4.9 2014q4/bin/../lib/gcc/arm-none-eabi/4.9.3/armv7-m\libgcc.a(unwind-arm.o)
                0x08003e80                _Unwind_GetCFA
                0x08003e84                __gnu_Unwind_RaiseException
                0x08003ee4                __gnu_Unwind_ForcedUnwind
                0x08003ef8                __gnu_Unwind_Resume
                0x08003f3c                __gnu_Unwind_Resume_or_Rethrow
                0x08003f50                _Unwind_Complete
                0x08003f54                _Unwind_DeleteException
                0x08003f60                _Unwind_VRS_Get
                0x08003fb0                _Unwind_VRS_Set
                0x08004000                __gnu_Unwind_Backtrace
                0x08004344                __aeabi_unwind_cpp_pr0
                0x08004348                __aeabi_unwind_cpp_pr1
                0x0800434c                __aeabi_unwind_cpp_pr2
                0x08004350                _Unwind_VRS_Pop
 .text          0x080045f4      0x1ac c:/program files (x86)/gnu tools arm embedded/4.9 2014q4/bin/../lib/gcc/arm-none-eabi/4.9.3/armv7-m\libgcc.a(libunwind.o)
                0x080045f4                __restore_core_regs
                0x080045f4                restore_core_regs
                0x0800460c                __gnu_Unwind_Restore_VFP
                0x08004614                __gnu_Unwind_Save_VFP
                0x0800461c                __gnu_Unwind_Restore_VFP_D
                0x08004624                __gnu_Unwind_Save_VFP_D
                0x0800462c                __gnu_Unwind_Restore_VFP_D_16_to_31
                0x08004634                __gnu_Unwind_Save_VFP_D_16_to_31
                0x0800463c                __gnu_Unwind_Restore_WMMXD
                0x08004680                __gnu_Unwind_Save_WMMXD
                0x080046c4                __gnu_Unwind_Restore_WMMXC
                0x080046d8                __gnu_Unwind_Save_WMMXC
                0x080046ec                ___Unwind_RaiseException
                0x080046ec                _Unwind_RaiseException
                0x08004710                _Unwind_Resume
                0x08004710                ___Unwind_Resume
                0x08004734                _Unwind_Resume_or_Rethrow
                0x08004734                ___Unwind_Resume_or_Rethrow
                0x08004758                _Unwind_ForcedUnwind
                0x08004758                ___Unwind_ForcedUnwind
                0x0800477c                ___Unwind_Backtrace
                0x0800477c                _Unwind_Backtrace
 .text          0x080047a0      0x37c c:/program files (x86)/gnu tools arm embedded/4.9 2014q4/bin/../lib/gcc/arm-none-eabi/4.9.3/armv7-m\libgcc.a(pr-support.o)
                0x080047f8                __gnu_unwind_execute
                0x08004ac4                __gnu_unwind_frame
                0x08004aec                _Unwind_GetRegionStart
                0x08004af8                _Unwind_GetLanguageSpecificData
                0x08004b0c                _Unwind_GetDataRelBase
                0x08004b14                _Unwind_GetTextRelBase
 .text          0x08004b1c       0xec c:/program files (x86)/gnu tools arm embedded/4.9 2014q4/bin/../lib/gcc/arm-none-eabi/4.9.3/../../../../arm-none-eabi/lib/armv7-m\libc.a(lib_a-memcpy.o)
                0x08004b1c                memcpy
 *(.init)
 *(.fini)
 *crtbegin.o(.ctors)
 *crtbegin?.o(.ctors)
 *(EXCLUDE_FILE(*crtend.o *crtend?.o) .ctors)
 *(SORT(.ctors.*))
 *(.ctors)
 *crtbegin.o(.dtors)
 *crtbegin?.o(.dtors)
 *(EXCLUDE_FILE(*crtend.o *crtend?.o) .dtors)
 *(SORT(.dtors.*))
 *(.dtors)
 *(.rodata*)
 .rodata        0x08004c08       0xc0 ..\obj\main.o
 *(.eh_fram e*)

.glue_7         0x08004cc8        0x0
 .glue_7        0x00000000        0x0 linker stubs

.glue_7t        0x08004cc8        0x0
 .glue_7t       0x00000000        0x0 linker stubs

.vfp11_veneer   0x08004cc8        0x0
 .vfp11_veneer  0x00000000        0x0 linker stubs

.v4_bx          0x08004cc8        0x0
 .v4_bx         0x00000000        0x0 linker stubs

.iplt           0x08004cc8        0x0
 .iplt          0x00000000        0x0 ..\obj\semihosting.o

.ARM.extab      0x08004cc8      0x180
 *(.ARM.extab* .gnu.linkonce.armextab.*)
 .ARM.extab.text._Z9CAN1Setupv
                0x08004cc8        0xc ..\obj\CAN.o
 .ARM.extab.text._Z8CAN1SendthPh
                0x08004cd4        0xc ..\obj\CAN.o
 .ARM.extab.text._ZN4GPIO5setupEP12GPIO_TypeDeft16GPIOMode_TypeDef
                0x08004ce0        0xc ..\obj\GPIO.o
 .ARM.extab.text._ZN4GPIO5writeE9BitAction
                0x08004cec        0xc ..\obj\GPIO.o
 .ARM.extab.text._ZN3ADC5setupEP11ADC_TypeDefh
                0x08004cf8        0xc ..\obj\ADC.o
 .ARM.extab.text._ZN3ADC4readEv
                0x08004d04        0xc ..\obj\ADC.o
 .ARM.extab.text._Z9ADC1Setuph
                0x08004d10        0xc ..\obj\ADC.o
 .ARM.extab.text._Z9ADC2Setuph
                0x08004d1c        0xc ..\obj\ADC.o
 .ARM.extab.text._Z8ADC1Readh
                0x08004d28        0xc ..\obj\ADC.o
 .ARM.extab.text._Z8ADC2Readh
                0x08004d34        0xc ..\obj\ADC.o
 .ARM.extab.text._ZN5USART4putsEPKc
                0x08004d40        0xc ..\obj\USART.o
 .ARM.extab.text._ZN5USART6printfEPKcz
                0x08004d4c        0xc ..\obj\USART.o
 .ARM.extab.text._ZN5USART5setupEP13USART_TypeDefm
                0x08004d58        0xc ..\obj\USART.o
 .ARM.extab.text._ZN5USART4sendEc
                0x08004d64        0xc ..\obj\USART.o
 .ARM.extab.text._Z11USART2Setupm
                0x08004d70        0xc ..\obj\USART.o
 .ARM.extab.text._Z11USART1Setupm
                0x08004d7c        0xc ..\obj\USART.o
 .ARM.extab.text._Z13USART2ITSetupt
                0x08004d88        0xc ..\obj\USART.o
 .ARM.extab.text._Z13USART1ITSetupt
                0x08004d94        0xc ..\obj\USART.o
 .ARM.extab.text.USART1_IRQHandler
                0x08004da0        0xc ..\obj\USART.o
 .ARM.extab.text.USART2_IRQHandler
                0x08004dac        0xc ..\obj\USART.o
 .ARM.extab.text._ZN3TIM8pwmSetupEP11TIM_TypeDefttt
                0x08004db8        0xc ..\obj\TIM.o
 .ARM.extab.text._ZN3TIM12encoderSetupEP11TIM_TypeDef
                0x08004dc4        0xc ..\obj\TIM.o
 .ARM.extab.text._Z12TIM2PWMSetupt
                0x08004dd0        0xc ..\obj\TIM.o
 .ARM.extab.text._Z12TIM3PWMSetupt
                0x08004ddc        0xc ..\obj\TIM.o
 .ARM.extab.text._Z12TIM4PWMSetupt
                0x08004de8        0xc ..\obj\TIM.o
 .ARM.extab.text._Z11OC1PWMSetupP11TIM_TypeDeft
                0x08004df4        0xc ..\obj\TIM.o
 .ARM.extab.text._Z11OC2PWMSetupP11TIM_TypeDeft
                0x08004e00        0xc ..\obj\TIM.o
 .ARM.extab.text._Z11OC3PWMSetupP11TIM_TypeDeft
                0x08004e0c        0xc ..\obj\TIM.o
 .ARM.extab.text._Z11OC4PWMSetupP11TIM_TypeDeft
                0x08004e18        0xc ..\obj\TIM.o
 .ARM.extab.text._Z17TIM2_ENCODERSetupv
                0x08004e24        0xc ..\obj\TIM.o
 .ARM.extab     0x08004e30       0x18 c:/program files (x86)/gnu tools arm embedded/4.9 2014q4/bin/../lib/gcc/arm-none-eabi/4.9.3/armv7-m\libgcc.a(pr-support.o)
                0x08004e48                __exidx_start = .

.ARM.exidx      0x08004e48      0x218
 *(.ARM.exidx* .gnu.linkonce.armexidx.*)
 .ARM.exidx.text._Z9CAN1Setupv
                0x08004e48        0x8 ..\obj\CAN.o
 .ARM.exidx.text._Z8CAN1SendthPh
                0x08004e50        0x8 ..\obj\CAN.o
 .ARM.exidx.text.NVIC_SetPriority
                0x08004e58        0x8 ..\obj\SYSTEM.o
 .ARM.exidx.text.SysTick_Config
                0x08004e60        0x0 ..\obj\SYSTEM.o
                                  0x8 (size before relaxing)
 .ARM.exidx.text._Z5setupv
                0x08004e60        0x0 ..\obj\SYSTEM.o
                                  0x8 (size before relaxing)
 .ARM.exidx.text.SysTick_Handler
                0x08004e60        0x0 ..\obj\SYSTEM.o
                                  0x8 (size before relaxing)
 .ARM.exidx.text._Z5delaym
                0x08004e60        0x0 ..\obj\SYSTEM.o
                                  0x8 (size before relaxing)
 .ARM.exidx.text.main
                0x08004e60        0x8 ..\obj\main.o
 .ARM.exidx.text.USB_LP_CAN1_RX0_IRQHandler
                0x08004e68        0x8 ..\obj\main.o
 .ARM.exidx.text.CAN1_RX1_IRQHandler
                0x08004e70        0x0 ..\obj\main.o
                                  0x8 (size before relaxing)
 .ARM.exidx.text.EXTI0_IRQHandler
                0x08004e70        0x0 ..\obj\main.o
                                  0x8 (size before relaxing)
 .ARM.exidx.text._ZN4GPIO5setupEP12GPIO_TypeDeft16GPIOMode_TypeDef
                0x08004e70        0x8 ..\obj\GPIO.o
 .ARM.exidx.text._ZN4GPIO5writeE9BitAction
                0x08004e78        0x8 ..\obj\GPIO.o
 .ARM.exidx.text._Z9GPIOSetupv
                0x08004e80        0x8 ..\obj\GPIO.o
 .ARM.exidx.text._ZN3ADC5setupEP11ADC_TypeDefh
                0x08004e88        0x8 ..\obj\ADC.o
 .ARM.exidx.text._ZN3ADC4readEv
                0x08004e90        0x8 ..\obj\ADC.o
 .ARM.exidx.text._Z9ADC1Setuph
                0x08004e98        0x8 ..\obj\ADC.o
 .ARM.exidx.text._Z9ADC2Setuph
                0x08004ea0        0x8 ..\obj\ADC.o
 .ARM.exidx.text._Z8ADC1Readh
                0x08004ea8        0x8 ..\obj\ADC.o
 .ARM.exidx.text._Z8ADC2Readh
                0x08004eb0       0x10 ..\obj\ADC.o
                                  0x8 (size before relaxing)
 .ARM.exidx.text.SPI1_IRQHandler
                0x08004ec0       0x10 ..\obj\SPI.o
                                  0x8 (size before relaxing)
 .ARM.exidx.text._ZN5USART4putsEPKc
                0x08004ed0        0x8 ..\obj\USART.o
 .ARM.exidx.text._ZN5USART6printfEPKcz
                0x08004ed8        0x8 ..\obj\USART.o
 .ARM.exidx.text._ZN5USART5setupEP13USART_TypeDefm
                0x08004ee0        0x8 ..\obj\USART.o
 .ARM.exidx.text._ZN5USART4sendEc
                0x08004ee8        0x8 ..\obj\USART.o
 .ARM.exidx.text._Z11USART2Setupm
                0x08004ef0        0x8 ..\obj\USART.o
 .ARM.exidx.text._Z11USART1Setupm
                0x08004ef8        0x8 ..\obj\USART.o
 .ARM.exidx.text._Z13USART2ITSetupt
                0x08004f00        0x8 ..\obj\USART.o
 .ARM.exidx.text._Z13USART1ITSetupt
                0x08004f08        0x8 ..\obj\USART.o
 .ARM.exidx.text.USART1_IRQHandler
                0x08004f10        0x8 ..\obj\USART.o
 .ARM.exidx.text.USART2_IRQHandler
                0x08004f18        0x8 ..\obj\USART.o
 .ARM.exidx.text._ZN3TIM8pwmSetupEP11TIM_TypeDefttt
                0x08004f20        0x8 ..\obj\TIM.o
 .ARM.exidx.text._ZN3TIM4dutyEt
                0x08004f28        0x8 ..\obj\TIM.o
 .ARM.exidx.text._ZN3TIM12encoderSetupEP11TIM_TypeDef
                0x08004f30        0x8 ..\obj\TIM.o
 .ARM.exidx.text._ZN3TIM4readEv
                0x08004f38        0x8 ..\obj\TIM.o
 .ARM.exidx.text._Z12TIM2PWMSetupt
                0x08004f40        0x8 ..\obj\TIM.o
 .ARM.exidx.text._Z12TIM3PWMSetupt
                0x08004f48        0x8 ..\obj\TIM.o
 .ARM.exidx.text._Z12TIM4PWMSetupt
                0x08004f50        0x8 ..\obj\TIM.o
 .ARM.exidx.text._Z11OC1PWMSetupP11TIM_TypeDeft
                0x08004f58        0x8 ..\obj\TIM.o
 .ARM.exidx.text._Z11OC2PWMSetupP11TIM_TypeDeft
                0x08004f60        0x8 ..\obj\TIM.o
 .ARM.exidx.text._Z11OC3PWMSetupP11TIM_TypeDeft
                0x08004f68        0x8 ..\obj\TIM.o
 .ARM.exidx.text._Z11OC4PWMSetupP11TIM_TypeDeft
                0x08004f70        0x8 ..\obj\TIM.o
 .ARM.exidx.text._Z10OC1DutySetP11TIM_TypeDeft
                0x08004f78        0x8 ..\obj\TIM.o
 .ARM.exidx.text._Z10OC2DutySetP11TIM_TypeDeft
                0x08004f80        0x0 ..\obj\TIM.o
                                  0x8 (size before relaxing)
 .ARM.exidx.text._Z10OC3DutySetP11TIM_TypeDeft
                0x08004f80        0x0 ..\obj\TIM.o
                                  0x8 (size before relaxing)
 .ARM.exidx.text._Z10OC4DutySetP11TIM_TypeDeft
                0x08004f80        0x0 ..\obj\TIM.o
                                  0x8 (size before relaxing)
 .ARM.exidx.text._Z17TIM1_ENCODERSetupv
                0x08004f80        0x8 ..\obj\TIM.o
 .ARM.exidx.text._Z17TIM2_ENCODERSetupv
                0x08004f88        0x8 ..\obj\TIM.o
 .ARM.exidx.text._Z17TIM3_ENCODERSetupv
                0x08004f90        0x8 ..\obj\TIM.o
 .ARM.exidx.text._Z17TIM4_ENCODERSetupv
                0x08004f98        0x0 ..\obj\TIM.o
                                  0x8 (size before relaxing)
 .ARM.exidx.text._Z16TIM1_ENCODERReadv
                0x08004f98        0x8 ..\obj\TIM.o
 .ARM.exidx.text._Z16TIM2_ENCODERReadv
                0x08004fa0        0x0 ..\obj\TIM.o
                                  0x8 (size before relaxing)
 .ARM.exidx.text._Z16TIM3_ENCODERReadv
                0x08004fa0        0x0 ..\obj\TIM.o
                                  0x8 (size before relaxing)
 .ARM.exidx.text._Z16TIM4_ENCODERReadv
                0x08004fa0        0x0 ..\obj\TIM.o
                                  0x8 (size before relaxing)
 .ARM.exidx.text._Z16TIM2_ENCODER_IRQv
                0x08004fa0        0x8 ..\obj\TIM.o
 .ARM.exidx.text._Z16TIM3_ENCODER_IRQv
                0x08004fa8        0x0 ..\obj\TIM.o
                                  0x8 (size before relaxing)
 .ARM.exidx.text._Z16TIM4_ENCODER_IRQv
                0x08004fa8        0x0 ..\obj\TIM.o
                                  0x8 (size before relaxing)
 .ARM.exidx.text.TIM2_IRQHandler
                0x08004fa8        0x0 ..\obj\TIM.o
                                  0x8 (size before relaxing)
 .ARM.exidx.text.TIM3_IRQHandler
                0x08004fa8        0x0 ..\obj\TIM.o
                                  0x8 (size before relaxing)
 .ARM.exidx.text.TIM4_IRQHandler
                0x08004fa8        0x0 ..\obj\TIM.o
                                  0x8 (size before relaxing)
 .ARM.exidx     0x08004fa8       0x80 c:/program files (x86)/gnu tools arm embedded/4.9 2014q4/bin/../lib/gcc/arm-none-eabi/4.9.3/armv7-m\libgcc.a(unwind-arm.o)
                                 0xd8 (size before relaxing)
 .ARM.exidx     0x08005028       0x38 c:/program files (x86)/gnu tools arm embedded/4.9 2014q4/bin/../lib/gcc/arm-none-eabi/4.9.3/armv7-m\libgcc.a(pr-support.o)
                                 0x48 (size before relaxing)
                0x08005060                __exidx_end = .
                0x08005060                __etext = .
                0x08005060                _sidata = __etext

.rel.dyn        0x08005060        0x0
 .rel.iplt      0x00000000        0x0 ..\obj\semihosting.o

.data           0x20000000       0x2c load address 0x08005060
                0x20000000                __data_start__ = .
                0x20000000                _sdata = __data_start__
 *(vtable)
 *(.data*)
 .data          0x20000000       0x14 ..\obj\system_stm32f10x.o
                0x20000000                SystemCoreClock
                0x20000004                AHBPrescTable
 .data          0x20000014       0x14 ..\obj\stm32f10x_rcc.o
 .data          0x20000028        0x4 ..\obj\USART.o
                0x20000028                USART::usart1RxAddress
                0x2000002a                USART::usart2RxAddress
                0x2000002c                . = ALIGN (0x4)
                0x2000002c                PROVIDE (__preinit_array_start, .)
 *(.preinit_array)
                0x2000002c                PROVIDE (__preinit_array_end, .)
                0x2000002c                . = ALIGN (0x4)
                0x2000002c                PROVIDE (__init_array_start, .)
 *(SORT(.init_array.*))
 *(.init_array)
                0x2000002c                PROVIDE (__init_array_end, .)
                0x2000002c                . = ALIGN (0x4)
                0x2000002c                PROVIDE (__fini_array_start, .)
 *(SORT(.fini_array.*))
 *(.fini_array)
                0x2000002c                PROVIDE (__fini_array_end, .)
 *(.jcr*)
                0x2000002c                . = ALIGN (0x4)
                0x2000002c                __data_end__ = .
                0x2000002c                _edata = __data_end__

.igot.plt       0x2000002c        0x0 load address 0x0800508c
 .igot.plt      0x00000000        0x0 ..\obj\semihosting.o

.bss            0x2000002c      0x334 load address 0x0800508c
                0x2000002c                . = ALIGN (0x4)
                0x2000002c                __bss_start__ = .
                0x2000002c                _sbss = __bss_start__
 *(.bss*)
 .bss           0x2000002c        0x4 ..\obj\SYSTEM.o
 .bss           0x20000030      0x100 ..\obj\main.o
                0x20000034                a
                0x20000036                rxFlag
                0x20000038                enc1
                0x2000003c                canData
                0x20000044                RxMessage
                0x20000058                led
                0x20000064                canRx
                0x20000070                canTx
                0x2000007c                usart1Tx
                0x20000088                usart1Rx
                0x20000094                usart2Tx
                0x200000a0                usart2Rx
                0x200000ac                aIn
                0x200000b8                encA
                0x200000c4                encB
                0x200000d0                spiNss
                0x200000dc                spiMosi
                0x200000e8                spiMiso
                0x200000f4                spiSck
                0x20000100                pwmout
                0x2000010c                pwm
                0x20000118                enc
                0x20000124                pot
                0x2000012c                serial
 .bss           0x20000130      0x210 ..\obj\USART.o
                0x20000130                USART::usart1RxBuffer
                0x200001b0                USART::usart1ReadAddress
                0x200001b4                USART::usart2RxBuffer
                0x20000234                USART::usart2ReadAddress
                0x20000238                USART::usart1TxBuffer
                0x200002b8                USART::usart1TxSendAddress
                0x200002ba                USART::usart1TxWriteAddress
                0x200002bc                USART::usart2TxBuffer
                0x2000033c                USART::usart2TxSendAddress
                0x2000033e                USART::usart2TxWriteAddress
 .bss           0x20000340       0x20 ..\obj\TIM.o
                0x20000340                TIM::tim1_pwm_enc
                0x20000344                TIM::tim2_pwm_enc
                0x20000348                TIM::tim3_pwm_enc
                0x2000034c                TIM::tim4_pwm_enc
                0x20000350                TIM::tim1Cnt
                0x20000354                TIM::tim2Cnt
                0x20000358                TIM::tim3Cnt
                0x2000035c                TIM::tim4Cnt
 *(COMMON)
                0x20000360                . = ALIGN (0x4)
                0x20000360                __bss_end__ = .
                0x20000360                _ebss = __bss_end__

.heap           0x20000360        0x0
                0x20000360                __end__ = .
                0x20000360                _end = __end__
                0x20000360                end = __end__
 *(.heap*)
                0x20000360                __HeapLimit = .

.co_stack       0x20000360      0x400 load address 0x080053c0
                0x20000360                . = ALIGN (0x8)
 *(.co_stack .co_stack.*)
 .co_stack      0x20000360      0x400 ..\obj\startup_stm32f10x_md.o
                0x20000360                pulStack
                0x20005000                __StackTop = (ORIGIN (ram) + 0x5000)
                0x20004c00                __StackLimit = (__StackTop - SIZEOF (.co_stack))
                0x20005000                PROVIDE (__stack, __StackTop)
                0x00000001                ASSERT ((__StackLimit >= __HeapLimit), region ram  overflowed with stack)
LOAD ..\obj\semihosting.o
LOAD ..\obj\stm32f10x_tim.o
LOAD ..\obj\system_stm32f10x.o
LOAD ..\obj\CAN.o
LOAD ..\obj\SYSTEM.o
LOAD ..\obj\startup_stm32f10x_md.o
LOAD ..\obj\stm32f10x_can.o
LOAD ..\obj\stm32f10x_gpio.o
LOAD ..\obj\main.o
LOAD ..\obj\GPIO.o
LOAD ..\obj\ADC.o
LOAD ..\obj\printf.o
LOAD ..\obj\stm32f10x_rcc.o
LOAD ..\obj\stm32f10x_exti.o
LOAD ..\obj\stm32f10x_adc.o
LOAD ..\obj\stm32f10x_usart.o
LOAD ..\obj\sh_cmd.o
LOAD ..\obj\syscalls.o
LOAD ..\obj\SPI.o
LOAD ..\obj\REMAP.o
LOAD ..\obj\misc.o
LOAD ..\obj\stm32f10x_spi.o
LOAD ..\obj\USART.o
LOAD ..\obj\TIM.o
LOAD c:/program files (x86)/gnu tools arm embedded/4.9 2014q4/bin/../lib/gcc/arm-none-eabi/4.9.3/../../../../arm-none-eabi/lib/armv7-m\libm.a
LOAD c:/program files (x86)/gnu tools arm embedded/4.9 2014q4/bin/../lib/gcc/arm-none-eabi/4.9.3/armv7-m\libgcc.a
LOAD c:/program files (x86)/gnu tools arm embedded/4.9 2014q4/bin/../lib/gcc/arm-none-eabi/4.9.3/../../../../arm-none-eabi/lib/armv7-m\libc.a
LOAD c:/program files (x86)/gnu tools arm embedded/4.9 2014q4/bin/../lib/gcc/arm-none-eabi/4.9.3/../../../../arm-none-eabi/lib/armv7-m\libstdc++.a
START GROUP
LOAD c:/program files (x86)/gnu tools arm embedded/4.9 2014q4/bin/../lib/gcc/arm-none-eabi/4.9.3/armv7-m\libgcc.a
LOAD c:/program files (x86)/gnu tools arm embedded/4.9 2014q4/bin/../lib/gcc/arm-none-eabi/4.9.3/../../../../arm-none-eabi/lib/armv7-m\libg.a
LOAD c:/program files (x86)/gnu tools arm embedded/4.9 2014q4/bin/../lib/gcc/arm-none-eabi/4.9.3/../../../../arm-none-eabi/lib/armv7-m\libc.a
END GROUP
OUTPUT(F103_48.elf elf32-littlearm)

.debug_info     0x00000000     0xb268
 .debug_info    0x00000000     0x1c58 ..\obj\stm32f10x_tim.o
 .debug_info    0x00001c58      0x479 ..\obj\system_stm32f10x.o
 .debug_info    0x000020d1      0x5b5 ..\obj\CAN.o
 .debug_info    0x00002686      0x5d8 ..\obj\SYSTEM.o
 .debug_info    0x00002c5e       0xfc ..\obj\startup_stm32f10x_md.o
 .debug_info    0x00002d5a      0xb9c ..\obj\stm32f10x_can.o
 .debug_info    0x000038f6      0x6e7 ..\obj\stm32f10x_gpio.o
 .debug_info    0x00003fdd      0xef2 ..\obj\main.o
 .debug_info    0x00004ecf      0x45f ..\obj\GPIO.o
 .debug_info    0x0000532e      0x47a ..\obj\ADC.o
 .debug_info    0x000057a8      0xf5a ..\obj\printf.o
 .debug_info    0x00006702      0x88d ..\obj\stm32f10x_rcc.o
 .debug_info    0x00006f8f      0x341 ..\obj\stm32f10x_exti.o
 .debug_info    0x000072d0      0xb74 ..\obj\stm32f10x_adc.o
 .debug_info    0x00007e44      0x9e8 ..\obj\stm32f10x_usart.o
 .debug_info    0x0000882c       0xb3 ..\obj\sh_cmd.o
 .debug_info    0x000088df      0x496 ..\obj\SPI.o
 .debug_info    0x00008d75      0x53d ..\obj\misc.o
 .debug_info    0x000092b2      0x8f3 ..\obj\stm32f10x_spi.o
 .debug_info    0x00009ba5      0x999 ..\obj\USART.o
 .debug_info    0x0000a53e      0xd2a ..\obj\TIM.o

.debug_abbrev   0x00000000     0x21b5
 .debug_abbrev  0x00000000      0x1b0 ..\obj\stm32f10x_tim.o
 .debug_abbrev  0x000001b0      0x14c ..\obj\system_stm32f10x.o
 .debug_abbrev  0x000002fc      0x166 ..\obj\CAN.o
 .debug_abbrev  0x00000462      0x19d ..\obj\SYSTEM.o
 .debug_abbrev  0x000005ff       0xae ..\obj\startup_stm32f10x_md.o
 .debug_abbrev  0x000006ad      0x1f3 ..\obj\stm32f10x_can.o
 .debug_abbrev  0x000008a0      0x1c8 ..\obj\stm32f10x_gpio.o
 .debug_abbrev  0x00000a68      0x23e ..\obj\main.o
 .debug_abbrev  0x00000ca6      0x1d1 ..\obj\GPIO.o
 .debug_abbrev  0x00000e77      0x1b6 ..\obj\ADC.o
 .debug_abbrev  0x0000102d      0x2a5 ..\obj\printf.o
 .debug_abbrev  0x000012d2      0x1ba ..\obj\stm32f10x_rcc.o
 .debug_abbrev  0x0000148c      0x151 ..\obj\stm32f10x_exti.o
 .debug_abbrev  0x000015dd      0x198 ..\obj\stm32f10x_adc.o
 .debug_abbrev  0x00001775      0x162 ..\obj\stm32f10x_usart.o
 .debug_abbrev  0x000018d7       0x14 ..\obj\sh_cmd.o
 .debug_abbrev  0x000018eb      0x125 ..\obj\SPI.o
 .debug_abbrev  0x00001a10      0x145 ..\obj\misc.o
 .debug_abbrev  0x00001b55      0x17e ..\obj\stm32f10x_spi.o
 .debug_abbrev  0x00001cd3      0x25b ..\obj\USART.o
 .debug_abbrev  0x00001f2e      0x287 ..\obj\TIM.o

.debug_aranges  0x00000000      0xd58
 .debug_aranges
                0x00000000      0x2f0 ..\obj\stm32f10x_tim.o
 .debug_aranges
                0x000002f0       0x38 ..\obj\system_stm32f10x.o
 .debug_aranges
                0x00000328       0x28 ..\obj\CAN.o
 .debug_aranges
                0x00000350       0x40 ..\obj\SYSTEM.o
 .debug_aranges
                0x00000390       0x28 ..\obj\startup_stm32f10x_md.o
 .debug_aranges
                0x000003b8       0xe0 ..\obj\stm32f10x_can.o
 .debug_aranges
                0x00000498       0xa8 ..\obj\stm32f10x_gpio.o
 .debug_aranges
                0x00000540       0x38 ..\obj\main.o
 .debug_aranges
                0x00000578       0x48 ..\obj\GPIO.o
 .debug_aranges
                0x000005c0       0x48 ..\obj\ADC.o
 .debug_aranges
                0x00000608       0xa0 ..\obj\printf.o
 .debug_aranges
                0x000006a8      0x118 ..\obj\stm32f10x_rcc.o
 .debug_aranges
                0x000007c0       0x58 ..\obj\stm32f10x_exti.o
 .debug_aranges
                0x00000818      0x138 ..\obj\stm32f10x_adc.o
 .debug_aranges
                0x00000950      0x100 ..\obj\stm32f10x_usart.o
 .debug_aranges
                0x00000a50       0x20 ..\obj\sh_cmd.o
 .debug_aranges
                0x00000a70       0x28 ..\obj\SPI.o
 .debug_aranges
                0x00000a98       0x40 ..\obj\misc.o
 .debug_aranges
                0x00000ad8       0xd0 ..\obj\stm32f10x_spi.o
 .debug_aranges
                0x00000ba8       0x80 ..\obj\USART.o
 .debug_aranges
                0x00000c28      0x130 ..\obj\TIM.o

.debug_ranges   0x00000000      0xbf8
 .debug_ranges  0x00000000      0x2e0 ..\obj\stm32f10x_tim.o
 .debug_ranges  0x000002e0       0x28 ..\obj\system_stm32f10x.o
 .debug_ranges  0x00000308       0x18 ..\obj\CAN.o
 .debug_ranges  0x00000320       0x30 ..\obj\SYSTEM.o
 .debug_ranges  0x00000350       0x18 ..\obj\startup_stm32f10x_md.o
 .debug_ranges  0x00000368       0xd0 ..\obj\stm32f10x_can.o
 .debug_ranges  0x00000438       0x98 ..\obj\stm32f10x_gpio.o
 .debug_ranges  0x000004d0       0x28 ..\obj\main.o
 .debug_ranges  0x000004f8       0x38 ..\obj\GPIO.o
 .debug_ranges  0x00000530       0x38 ..\obj\ADC.o
 .debug_ranges  0x00000568       0x90 ..\obj\printf.o
 .debug_ranges  0x000005f8      0x108 ..\obj\stm32f10x_rcc.o
 .debug_ranges  0x00000700       0x48 ..\obj\stm32f10x_exti.o
 .debug_ranges  0x00000748      0x128 ..\obj\stm32f10x_adc.o
 .debug_ranges  0x00000870       0xf0 ..\obj\stm32f10x_usart.o
 .debug_ranges  0x00000960       0x18 ..\obj\SPI.o
 .debug_ranges  0x00000978       0x30 ..\obj\misc.o
 .debug_ranges  0x000009a8       0xc0 ..\obj\stm32f10x_spi.o
 .debug_ranges  0x00000a68       0x70 ..\obj\USART.o
 .debug_ranges  0x00000ad8      0x120 ..\obj\TIM.o

.debug_line     0x00000000     0x4da6
 .debug_line    0x00000000      0xb0b ..\obj\stm32f10x_tim.o
 .debug_line    0x00000b0b      0x231 ..\obj\system_stm32f10x.o
 .debug_line    0x00000d3c      0x24d ..\obj\CAN.o
 .debug_line    0x00000f89      0x24e ..\obj\SYSTEM.o
 .debug_line    0x000011d7       0xaf ..\obj\startup_stm32f10x_md.o
 .debug_line    0x00001286      0x580 ..\obj\stm32f10x_can.o
 .debug_line    0x00001806      0x3e3 ..\obj\stm32f10x_gpio.o
 .debug_line    0x00001be9      0x30f ..\obj\main.o
 .debug_line    0x00001ef8      0x28b ..\obj\GPIO.o
 .debug_line    0x00002183      0x2c3 ..\obj\ADC.o
 .debug_line    0x00002446      0x495 ..\obj\printf.o
 .debug_line    0x000028db      0x4f0 ..\obj\stm32f10x_rcc.o
 .debug_line    0x00002dcb      0x2d1 ..\obj\stm32f10x_exti.o
 .debug_line    0x0000309c      0x54e ..\obj\stm32f10x_adc.o
 .debug_line    0x000035ea      0x4c6 ..\obj\stm32f10x_usart.o
 .debug_line    0x00003ab0       0x8c ..\obj\sh_cmd.o
 .debug_line    0x00003b3c      0x27f ..\obj\SPI.o
 .debug_line    0x00003dbb      0x271 ..\obj\misc.o
 .debug_line    0x0000402c      0x44e ..\obj\stm32f10x_spi.o
 .debug_line    0x0000447a      0x3ef ..\obj\USART.o
 .debug_line    0x00004869      0x53d ..\obj\TIM.o

.debug_str      0x00000000     0x44ce
 .debug_str     0x00000000      0xcdf ..\obj\stm32f10x_tim.o
                                0xdf2 (size before relaxing)
 .debug_str     0x00000cdf      0x171 ..\obj\system_stm32f10x.o
                                0x304 (size before relaxing)
 .debug_str     0x00000e50      0x382 ..\obj\CAN.o
                                0x562 (size before relaxing)
 .debug_str     0x000011d2      0x3d4 ..\obj\SYSTEM.o
                                0x616 (size before relaxing)
 .debug_str     0x000015a6       0xca ..\obj\startup_stm32f10x_md.o
                                0x161 (size before relaxing)
 .debug_str     0x00001670      0x321 ..\obj\stm32f10x_can.o
                                0x743 (size before relaxing)
 .debug_str     0x00001991      0x340 ..\obj\stm32f10x_gpio.o
                                0x52e (size before relaxing)
 .debug_str     0x00001cd1      0x4dc ..\obj\main.o
                                0xa4e (size before relaxing)
 .debug_str     0x000021ad       0xfd ..\obj\GPIO.o
                                0x4d5 (size before relaxing)
 .debug_str     0x000022aa      0x13d ..\obj\ADC.o
                                0x40d (size before relaxing)
 .debug_str     0x000023e7      0x4bf ..\obj\printf.o
                                0x715 (size before relaxing)
 .debug_str     0x000028a6      0x3e9 ..\obj\stm32f10x_rcc.o
                                0x62f (size before relaxing)
 .debug_str     0x00002c8f      0x1df ..\obj\stm32f10x_exti.o
                                0x35e (size before relaxing)
 .debug_str     0x00002e6e      0x460 ..\obj\stm32f10x_adc.o
                                0x710 (size before relaxing)
 .debug_str     0x000032ce      0x410 ..\obj\stm32f10x_usart.o
                                0x6a5 (size before relaxing)
 .debug_str     0x000036de      0x1d6 ..\obj\SPI.o
                                0x705 (size before relaxing)
 .debug_str     0x000038b4      0x111 ..\obj\misc.o
                                0x3d3 (size before relaxing)
 .debug_str     0x000039c5      0x2c5 ..\obj\stm32f10x_spi.o
                                0x612 (size before relaxing)
 .debug_str     0x00003c8a      0x290 ..\obj\USART.o
                                0xab7 (size before relaxing)
 .debug_str     0x00003f1a      0x5b4 ..\obj\TIM.o
                                0xe7c (size before relaxing)

.comment        0x00000000       0x70
 .comment       0x00000000       0x70 ..\obj\stm32f10x_tim.o
                                 0x71 (size before relaxing)
 .comment       0x00000000       0x71 ..\obj\system_stm32f10x.o
 .comment       0x00000000       0x71 ..\obj\CAN.o
 .comment       0x00000000       0x71 ..\obj\SYSTEM.o
 .comment       0x00000000       0x71 ..\obj\startup_stm32f10x_md.o
 .comment       0x00000000       0x71 ..\obj\stm32f10x_can.o
 .comment       0x00000000       0x71 ..\obj\stm32f10x_gpio.o
 .comment       0x00000000       0x71 ..\obj\main.o
 .comment       0x00000000       0x71 ..\obj\GPIO.o
 .comment       0x00000000       0x71 ..\obj\ADC.o
 .comment       0x00000000       0x71 ..\obj\printf.o
 .comment       0x00000000       0x71 ..\obj\stm32f10x_rcc.o
 .comment       0x00000000       0x71 ..\obj\stm32f10x_exti.o
 .comment       0x00000000       0x71 ..\obj\stm32f10x_adc.o
 .comment       0x00000000       0x71 ..\obj\stm32f10x_usart.o
 .comment       0x00000000       0x71 ..\obj\SPI.o
 .comment       0x00000000       0x71 ..\obj\misc.o
 .comment       0x00000000       0x71 ..\obj\stm32f10x_spi.o
 .comment       0x00000000       0x71 ..\obj\USART.o
 .comment       0x00000000       0x71 ..\obj\TIM.o

.ARM.attributes
                0x00000000       0x31
 .ARM.attributes
                0x00000000       0x33 ..\obj\stm32f10x_tim.o
 .ARM.attributes
                0x00000033       0x33 ..\obj\system_stm32f10x.o
 .ARM.attributes
                0x00000066       0x33 ..\obj\CAN.o
 .ARM.attributes
                0x00000099       0x33 ..\obj\SYSTEM.o
 .ARM.attributes
                0x000000cc       0x33 ..\obj\startup_stm32f10x_md.o
 .ARM.attributes
                0x000000ff       0x33 ..\obj\stm32f10x_can.o
 .ARM.attributes
                0x00000132       0x33 ..\obj\stm32f10x_gpio.o
 .ARM.attributes
                0x00000165       0x33 ..\obj\main.o
 .ARM.attributes
                0x00000198       0x33 ..\obj\GPIO.o
 .ARM.attributes
                0x000001cb       0x33 ..\obj\ADC.o
 .ARM.attributes
                0x000001fe       0x33 ..\obj\printf.o
 .ARM.attributes
                0x00000231       0x33 ..\obj\stm32f10x_rcc.o
 .ARM.attributes
                0x00000264       0x33 ..\obj\stm32f10x_exti.o
 .ARM.attributes
                0x00000297       0x33 ..\obj\stm32f10x_adc.o
 .ARM.attributes
                0x000002ca       0x33 ..\obj\stm32f10x_usart.o
 .ARM.attributes
                0x000002fd       0x21 ..\obj\sh_cmd.o
 .ARM.attributes
                0x0000031e       0x33 ..\obj\SPI.o
 .ARM.attributes
                0x00000351       0x33 ..\obj\misc.o
 .ARM.attributes
                0x00000384       0x33 ..\obj\stm32f10x_spi.o
 .ARM.attributes
                0x000003b7       0x33 ..\obj\USART.o
 .ARM.attributes
                0x000003ea       0x33 ..\obj\TIM.o

.debug_frame    0x00000000     0x37ec
 .debug_frame   0x00000000      0xe2c ..\obj\stm32f10x_tim.o
 .debug_frame   0x00000e2c       0x98 ..\obj\system_stm32f10x.o
 .debug_frame   0x00000ec4       0x58 ..\obj\CAN.o
 .debug_frame   0x00000f1c       0xc0 ..\obj\SYSTEM.o
 .debug_frame   0x00000fdc       0x4c ..\obj\startup_stm32f10x_md.o
 .debug_frame   0x00001028      0x3f0 ..\obj\stm32f10x_can.o
 .debug_frame   0x00001418      0x2d0 ..\obj\stm32f10x_gpio.o
 .debug_frame   0x000016e8       0x88 ..\obj\main.o
 .debug_frame   0x00001770       0xe0 ..\obj\GPIO.o
 .debug_frame   0x00001850       0xe8 ..\obj\ADC.o
 .debug_frame   0x00001938      0x2dc ..\obj\printf.o
 .debug_frame   0x00001c14      0x4f4 ..\obj\stm32f10x_rcc.o
 .debug_frame   0x00002108      0x148 ..\obj\stm32f10x_exti.o
 .debug_frame   0x00002250      0x5a4 ..\obj\stm32f10x_adc.o
 .debug_frame   0x000027f4      0x490 ..\obj\stm32f10x_usart.o
 .debug_frame   0x00002c84       0x50 ..\obj\SPI.o
 .debug_frame   0x00002cd4       0xd8 ..\obj\misc.o
 .debug_frame   0x00002dac      0x3a0 ..\obj\stm32f10x_spi.o
 .debug_frame   0x0000314c      0x20c ..\obj\USART.o
 .debug_frame   0x00003358      0x494 ..\obj\TIM.o
